
Weather Station Controller.out:     file format elf32-littlearm


Disassembly of section P1:

00400000 <_start_vector_>:
  400000:	ea000d37 	b	4034e4 <__start_>
  400004:	ea000d58 	b	40356c <__UndefInstructionHndlr_>
  400008:	ea000d5f 	b	40358c <__SupervisorHndlr_>
  40000c:	ea000d66 	b	4035ac <__PrefetchAbtHndlr_>
  400010:	ea000d6d 	b	4035cc <__DataAbtHndlr_>
  400014:	ea000d53 	b	403568 <__reserved_>
  400018:	eaf041fc 	b	10810 <IrqHandler>
  40001c:	eaf041ff 	b	10820 <FiqHandler>

Disassembly of section P4:

00400020 <RP_Vector_Thumb_0>:
  400020:	4770      	bx	lr

Disassembly of section P5:

00400060 <RP_Vector_Thumb_1>:
  400060:	4770      	bx	lr

Disassembly of section P6:

004000a0 <RP_Vector_Thumb_2>:
  4000a0:	4770      	bx	lr

Disassembly of section P7:

004000e0 <RP_Vector_Thumb_3>:
  4000e0:	4770      	bx	lr

Disassembly of section P2:

00400900 <?Veneer (3) for __aeabi_idivmod>:
  400900:	b408      	push	{r3}
  400902:	4b02      	ldr	r3, [pc, #8]	(40090c <?Veneer (3) for __aeabi_idivmod+0xc>)
  400904:	469c      	mov	ip, r3
  400906:	bc08      	pop	{r3}
  400908:	4760      	bx	ip
  40090a:	46c0      	nop			(mov r8, r8)
  40090c:	0000fae8 	.word	0x0000fae8

00400910 <?Veneer (3) for IntRestoreIRQ>:
  400910:	b408      	push	{r3}
  400912:	4b02      	ldr	r3, [pc, #8]	(40091c <?Veneer (3) for IntRestoreIRQ+0xc>)
  400914:	469c      	mov	ip, r3
  400916:	bc08      	pop	{r3}
  400918:	4760      	bx	ip
  40091a:	46c0      	nop			(mov r8, r8)
  40091c:	00010798 	.word	0x00010798

00400920 <?Veneer (3) for IntDisableIRQ>:
  400920:	b408      	push	{r3}
  400922:	4b02      	ldr	r3, [pc, #8]	(40092c <?Veneer (3) for IntDisableIRQ+0xc>)
  400924:	469c      	mov	ip, r3
  400926:	bc08      	pop	{r3}
  400928:	4760      	bx	ip
  40092a:	46c0      	nop			(mov r8, r8)
  40092c:	000107c8 	.word	0x000107c8

00400930 <?Veneer (3) for IntDisableFIQ>:
  400930:	b408      	push	{r3}
  400932:	4b02      	ldr	r3, [pc, #8]	(40093c <?Veneer (3) for IntDisableFIQ+0xc>)
  400934:	469c      	mov	ip, r3
  400936:	bc08      	pop	{r3}
  400938:	4760      	bx	ip
  40093a:	46c0      	nop			(mov r8, r8)
  40093c:	000107e0 	.word	0x000107e0

00400940 <?Veneer (3) for IntRestoreFIQ>:
  400940:	b408      	push	{r3}
  400942:	4b02      	ldr	r3, [pc, #8]	(40094c <?Veneer (3) for IntRestoreFIQ+0xc>)
  400944:	469c      	mov	ip, r3
  400946:	bc08      	pop	{r3}
  400948:	4760      	bx	ip
  40094a:	46c0      	nop			(mov r8, r8)
  40094c:	00010780 	.word	0x00010780

00400950 <?Veneer (3) for __aeabi_uidivmod>:
  400950:	b408      	push	{r3}
  400952:	4b02      	ldr	r3, [pc, #8]	(40095c <?Veneer (3) for __aeabi_uidivmod+0xc>)
  400954:	469c      	mov	ip, r3
  400956:	bc08      	pop	{r3}
  400958:	4760      	bx	ip
  40095a:	46c0      	nop			(mov r8, r8)
  40095c:	0000faf8 	.word	0x0000faf8

00400960 <put_hex>:
  400960:	b580      	push	{r7, lr}
  400962:	4907      	ldr	r1, [pc, #28]	(400980 <??put_hex_0>)
  400964:	466a      	mov	r2, sp
  400966:	1103      	asrs	r3, r0, #4
  400968:	5ccb      	ldrb	r3, [r1, r3]
  40096a:	7013      	strb	r3, [r2, #0]
  40096c:	0700      	lsls	r0, r0, #28
  40096e:	0f00      	lsrs	r0, r0, #28
  400970:	5c08      	ldrb	r0, [r1, r0]
  400972:	7050      	strb	r0, [r2, #1]
  400974:	2000      	movs	r0, #0
  400976:	7090      	strb	r0, [r2, #2]
  400978:	4668      	mov	r0, sp
  40097a:	f002 fd81 	bl	403480 <Uart_Print>
  40097e:	e265      	b.n	400e4c <??Subroutine4_0>

00400980 <??put_hex_0>:
  400980:	00403f14 	.word	0x00403f14

00400984 <put_hex16>:
  400984:	b510      	push	{r4, lr}
  400986:	0004      	lsls	r4, r0, #0
  400988:	0a00      	lsrs	r0, r0, #8
  40098a:	e00d      	b.n	4009a8 <?Subroutine0>

0040098c <put_hex32>:
  40098c:	b510      	push	{r4, lr}
  40098e:	0004      	lsls	r4, r0, #0
  400990:	0e00      	lsrs	r0, r0, #24
  400992:	f7ff ffe5 	bl	400960 <put_hex>
  400996:	0c20      	lsrs	r0, r4, #16
  400998:	0600      	lsls	r0, r0, #24
  40099a:	0e00      	lsrs	r0, r0, #24
  40099c:	f7ff ffe0 	bl	400960 <put_hex>
  4009a0:	0a20      	lsrs	r0, r4, #8
  4009a2:	0600      	lsls	r0, r0, #24
  4009a4:	0e00      	lsrs	r0, r0, #24
  4009a6:	46c0      	nop			(mov r8, r8)

004009a8 <?Subroutine0>:
  4009a8:	f7ff ffda 	bl	400960 <put_hex>
  4009ac:	0620      	lsls	r0, r4, #24
  4009ae:	0e00      	lsrs	r0, r0, #24
  4009b0:	f7ff ffd6 	bl	400960 <put_hex>
  4009b4:	9801      	ldr	r0, [sp, #4]
  4009b6:	bc10      	pop	{r4}
  4009b8:	b001      	add	sp, #4
  4009ba:	4700      	bx	r0

004009bc <dump_regs>:
  4009bc:	b5f2      	push	{r1, r4, r5, r6, r7, lr}
  4009be:	b082      	sub	sp, #8
  4009c0:	0007      	lsls	r7, r0, #0
  4009c2:	4816      	ldr	r0, [pc, #88]	(400a1c <??dump_regs_0>)
  4009c4:	f002 fd5c 	bl	403480 <Uart_Print>
  4009c8:	2000      	movs	r0, #0
  4009ca:	9000      	str	r0, [sp, #0]
  4009cc:	2407      	movs	r4, #7
  4009ce:	a514      	add	r5, pc, #80	(adr r5, 400a20 <??dump_regs_0+0x4>)
  4009d0:	a614      	add	r6, pc, #80	(adr r6, 400a24 <??dump_regs_0+0x8>)
  4009d2:	e019      	b.n	400a08 <??dump_regs_1>

004009d4 <??dump_regs_2>:
  4009d4:	9800      	ldr	r0, [sp, #0]
  4009d6:	4220      	tst	r0, r4
  4009d8:	d104      	bne.n	4009e4 <??dump_regs_3>
  4009da:	9800      	ldr	r0, [sp, #0]
  4009dc:	0480      	lsls	r0, r0, #18
  4009de:	0c00      	lsrs	r0, r0, #16
  4009e0:	f7ff ffd0 	bl	400984 <put_hex16>

004009e4 <??dump_regs_3>:
  4009e4:	0028      	lsls	r0, r5, #0
  4009e6:	f002 fd4b 	bl	403480 <Uart_Print>
  4009ea:	9800      	ldr	r0, [sp, #0]
  4009ec:	0080      	lsls	r0, r0, #2
  4009ee:	5838      	ldr	r0, [r7, r0]
  4009f0:	f7ff ffcc 	bl	40098c <put_hex32>
  4009f4:	9800      	ldr	r0, [sp, #0]
  4009f6:	4020      	ands	r0, r4
  4009f8:	2807      	cmp	r0, #7
  4009fa:	d102      	bne.n	400a02 <??dump_regs_4>
  4009fc:	0030      	lsls	r0, r6, #0
  4009fe:	f002 fd3f 	bl	403480 <Uart_Print>

00400a02 <??dump_regs_4>:
  400a02:	9800      	ldr	r0, [sp, #0]
  400a04:	1c40      	adds	r0, r0, #1
  400a06:	9000      	str	r0, [sp, #0]

00400a08 <??dump_regs_1>:
  400a08:	9800      	ldr	r0, [sp, #0]
  400a0a:	9902      	ldr	r1, [sp, #8]
  400a0c:	4288      	cmp	r0, r1
  400a0e:	d3e1      	bcc.n	4009d4 <??dump_regs_2>
  400a10:	a004      	add	r0, pc, #16	(adr r0, 400a24 <??dump_regs_0+0x8>)
  400a12:	f002 fd35 	bl	403480 <Uart_Print>
  400a16:	f000 fc2b 	bl	401270 <?Subroutine1>
  400a1a:	46c0      	nop			(mov r8, r8)

00400a1c <??dump_regs_0>:
  400a1c:	00403c54 	.word	0x00403c54
  400a20:	00000020 	.word	0x00000020
  400a24:	00000d0a 	.word	0x00000d0a

00400a28 <Main>:
  400a28:	b500      	push	{lr}
  400a2a:	b099      	sub	sp, #100
  400a2c:	4809      	ldr	r0, [pc, #36]	(400a54 <??DataTable0>)
  400a2e:	a913      	add	r1, sp, #76
  400a30:	6141      	str	r1, [r0, #20]
  400a32:	2100      	movs	r1, #0
  400a34:	61c1      	str	r1, [r0, #28]
  400a36:	aa02      	add	r2, sp, #8
  400a38:	6042      	str	r2, [r0, #4]
  400a3a:	4a05      	ldr	r2, [pc, #20]	(400a50 <??Main_0>)
  400a3c:	60c2      	str	r2, [r0, #12]
  400a3e:	4883      	ldr	r0, [pc, #524]	(400c4c <??DataTable2>)
  400a40:	466a      	mov	r2, sp
  400a42:	6042      	str	r2, [r0, #4]
  400a44:	60c1      	str	r1, [r0, #12]
  400a46:	f000 f807 	bl	400a58 <weather_station_app_init>

00400a4a <??Main_1>:
  400a4a:	f000 f915 	bl	400c78 <weather_controller_process>
  400a4e:	e7fc      	b.n	400a4a <??Main_1>

00400a50 <??Main_0>:
  400a50:	00400c51 	.word	0x00400c51

00400a54 <??DataTable0>:
  400a54:	00405280 	.word	0x00405280

00400a58 <weather_station_app_init>:
  400a58:	b5f8      	push	{r3, r4, r5, r6, r7, lr}
  400a5a:	2000      	movs	r0, #0
  400a5c:	4c7b      	ldr	r4, [pc, #492]	(400c4c <??DataTable2>)
  400a5e:	7460      	strb	r0, [r4, #17]
  400a60:	8260      	strh	r0, [r4, #18]
  400a62:	2107      	movs	r1, #7
  400a64:	7521      	strb	r1, [r4, #20]
  400a66:	7560      	strb	r0, [r4, #21]
  400a68:	2101      	movs	r1, #1
  400a6a:	75a1      	strb	r1, [r4, #22]
  400a6c:	7660      	strb	r0, [r4, #25]
  400a6e:	200f      	movs	r0, #15
  400a70:	76a0      	strb	r0, [r4, #26]
  400a72:	f40f fa13 	bl	fe9c <ITC_Init>
  400a76:	4968      	ldr	r1, [pc, #416]	(400c18 <??weather_station_app_init_0>)
  400a78:	2007      	movs	r0, #7
  400a7a:	f40f fa53 	bl	ff24 <IntAssignHandler>
  400a7e:	2100      	movs	r1, #0
  400a80:	2007      	movs	r0, #7
  400a82:	f40f fa31 	bl	fee8 <ITC_SetPriority>
  400a86:	2007      	movs	r0, #7
  400a88:	f40f fa9c 	bl	ffc4 <ITC_EnableInterrupt>
  400a8c:	4963      	ldr	r1, [pc, #396]	(400c1c <??weather_station_app_init_0+0x4>)
  400a8e:	2003      	movs	r0, #3
  400a90:	f40f fa48 	bl	ff24 <IntAssignHandler>
  400a94:	2100      	movs	r1, #0
  400a96:	2003      	movs	r0, #3
  400a98:	f40f fa26 	bl	fee8 <ITC_SetPriority>
  400a9c:	2003      	movs	r0, #3
  400a9e:	f40f fa91 	bl	ffc4 <ITC_EnableInterrupt>
  400aa2:	495f      	ldr	r1, [pc, #380]	(400c20 <??weather_station_app_init_0+0x8>)
  400aa4:	2005      	movs	r0, #5
  400aa6:	f40f fa3d 	bl	ff24 <IntAssignHandler>
  400aaa:	2100      	movs	r1, #0
  400aac:	2005      	movs	r0, #5
  400aae:	f40f fa1b 	bl	fee8 <ITC_SetPriority>
  400ab2:	2005      	movs	r0, #5
  400ab4:	f40f fa86 	bl	ffc4 <ITC_EnableInterrupt>
  400ab8:	495a      	ldr	r1, [pc, #360]	(400c24 <??weather_station_app_init_0+0xc>)
  400aba:	2002      	movs	r0, #2
  400abc:	f403 fa04 	bl	3ec8 <CRM_RegisterISR>
  400ac0:	4959      	ldr	r1, [pc, #356]	(400c28 <??weather_station_app_init_0+0x10>)
  400ac2:	2003      	movs	r0, #3
  400ac4:	f403 fa00 	bl	3ec8 <CRM_RegisterISR>
  400ac8:	4958      	ldr	r1, [pc, #352]	(400c2c <??weather_station_app_init_0+0x14>)
  400aca:	2004      	movs	r0, #4
  400acc:	f403 f9fc 	bl	3ec8 <CRM_RegisterISR>
  400ad0:	4957      	ldr	r1, [pc, #348]	(400c30 <??weather_station_app_init_0+0x18>)
  400ad2:	2005      	movs	r0, #5
  400ad4:	f403 f9f8 	bl	3ec8 <CRM_RegisterISR>
  400ad8:	f7ff ff22 	bl	400920 <?Veneer (3) for IntDisableIRQ>
  400adc:	f7ff ff28 	bl	400930 <?Veneer (3) for IntDisableFIQ>
  400ae0:	0020      	lsls	r0, r4, #0
  400ae2:	3030      	adds	r0, #48
  400ae4:	f002 fc52 	bl	40338c <Uart_Init>
  400ae8:	4d52      	ldr	r5, [pc, #328]	(400c34 <??weather_station_app_init_0+0x1c>)
  400aea:	0028      	lsls	r0, r5, #0
  400aec:	f002 fcc8 	bl	403480 <Uart_Print>
  400af0:	0028      	lsls	r0, r5, #0
  400af2:	3018      	adds	r0, #24
  400af4:	f002 fcc4 	bl	403480 <Uart_Print>
  400af8:	2160      	movs	r1, #96
  400afa:	484f      	ldr	r0, [pc, #316]	(400c38 <??weather_station_app_init_0+0x20>)
  400afc:	f7ff ff5e 	bl	4009bc <dump_regs>
  400b00:	0028      	lsls	r0, r5, #0
  400b02:	3024      	adds	r0, #36
  400b04:	f002 fcbc 	bl	403480 <Uart_Print>
  400b08:	2160      	movs	r1, #96
  400b0a:	484c      	ldr	r0, [pc, #304]	(400c3c <??weather_station_app_init_0+0x24>)
  400b0c:	f7ff ff56 	bl	4009bc <dump_regs>
  400b10:	0028      	lsls	r0, r5, #0
  400b12:	3038      	adds	r0, #56
  400b14:	f002 fcb4 	bl	403480 <Uart_Print>
  400b18:	2160      	movs	r1, #96
  400b1a:	4849      	ldr	r0, [pc, #292]	(400c40 <??weather_station_app_init_0+0x28>)
  400b1c:	f7ff ff4e 	bl	4009bc <dump_regs>
  400b20:	0028      	lsls	r0, r5, #0
  400b22:	304c      	adds	r0, #76
  400b24:	f002 fcac 	bl	403480 <Uart_Print>
  400b28:	4f46      	ldr	r7, [pc, #280]	(400c44 <??weather_station_app_init_0+0x2c>)
  400b2a:	2160      	movs	r1, #96
  400b2c:	0038      	lsls	r0, r7, #0
  400b2e:	f7ff ff45 	bl	4009bc <dump_regs>
  400b32:	0028      	lsls	r0, r5, #0
  400b34:	3054      	adds	r0, #84
  400b36:	f002 fca3 	bl	403480 <Uart_Print>
  400b3a:	4e43      	ldr	r6, [pc, #268]	(400c48 <??weather_station_app_init_0+0x30>)
  400b3c:	21c0      	movs	r1, #192
  400b3e:	0030      	lsls	r0, r6, #0
  400b40:	f7ff ff3c 	bl	4009bc <dump_regs>
  400b44:	f003 f994 	bl	403e70 <ResetMaca>
  400b48:	f002 fec2 	bl	4038d0 <MLMERadioInit>
  400b4c:	f003 f8aa 	bl	403ca4 <PlatformPortInit>
  400b50:	0020      	lsls	r0, r4, #0
  400b52:	3030      	adds	r0, #48
  400b54:	f002 fc1a 	bl	40338c <Uart_Init>
  400b58:	0028      	lsls	r0, r5, #0
  400b5a:	306c      	adds	r0, #108
  400b5c:	f002 fc90 	bl	403480 <Uart_Print>
  400b60:	0028      	lsls	r0, r5, #0
  400b62:	3018      	adds	r0, #24
  400b64:	f002 fc8c 	bl	403480 <Uart_Print>
  400b68:	2160      	movs	r1, #96
  400b6a:	4833      	ldr	r0, [pc, #204]	(400c38 <??weather_station_app_init_0+0x20>)
  400b6c:	f7ff ff26 	bl	4009bc <dump_regs>
  400b70:	0028      	lsls	r0, r5, #0
  400b72:	3024      	adds	r0, #36
  400b74:	f002 fc84 	bl	403480 <Uart_Print>
  400b78:	2160      	movs	r1, #96
  400b7a:	4830      	ldr	r0, [pc, #192]	(400c3c <??weather_station_app_init_0+0x24>)
  400b7c:	f7ff ff1e 	bl	4009bc <dump_regs>
  400b80:	0028      	lsls	r0, r5, #0
  400b82:	3038      	adds	r0, #56
  400b84:	f002 fc7c 	bl	403480 <Uart_Print>
  400b88:	2160      	movs	r1, #96
  400b8a:	482d      	ldr	r0, [pc, #180]	(400c40 <??weather_station_app_init_0+0x28>)
  400b8c:	f7ff ff16 	bl	4009bc <dump_regs>
  400b90:	0028      	lsls	r0, r5, #0
  400b92:	304c      	adds	r0, #76
  400b94:	f002 fc74 	bl	403480 <Uart_Print>
  400b98:	2160      	movs	r1, #96
  400b9a:	0038      	lsls	r0, r7, #0
  400b9c:	f7ff ff0e 	bl	4009bc <dump_regs>
  400ba0:	3554      	adds	r5, #84
  400ba2:	0028      	lsls	r0, r5, #0
  400ba4:	f002 fc6c 	bl	403480 <Uart_Print>
  400ba8:	21c0      	movs	r1, #192
  400baa:	0030      	lsls	r0, r6, #0
  400bac:	f7ff ff06 	bl	4009bc <dump_regs>
  400bb0:	2000      	movs	r0, #0
  400bb2:	f7ff fead 	bl	400910 <?Veneer (3) for IntRestoreIRQ>
  400bb6:	2000      	movs	r0, #0
  400bb8:	f7ff fec2 	bl	400940 <?Veneer (3) for IntRestoreFIQ>
  400bbc:	f002 fd24 	bl	403608 <LED_Init>
  400bc0:	f003 f896 	bl	403cf0 <KbGpioInit>
  400bc4:	f000 fe0c 	bl	4017e0 <NVMSetup>
  400bc8:	f000 fecc 	bl	401964 <LCD_Init>
  400bcc:	220f      	movs	r2, #15
  400bce:	2100      	movs	r1, #0
  400bd0:	20f0      	movs	r0, #240
  400bd2:	f002 fed9 	bl	403988 <MLMESetWakeupSource>
  400bd6:	7ea0      	ldrb	r0, [r4, #26]
  400bd8:	f002 ff59 	bl	403a8e <MLMEPAOutputAdjust>
  400bdc:	7d60      	ldrb	r0, [r4, #21]
  400bde:	f002 ff27 	bl	403a30 <MLMESetChannelRequest>
  400be2:	f000 fe37 	bl	401854 <ReadCurrentMeasurementSystem>
  400be6:	7da0      	ldrb	r0, [r4, #22]
  400be8:	f001 fa5c 	bl	4020a4 <LCD_SetBacklight>
  400bec:	f000 ffb3 	bl	401b56 <LCD_ClearDisplay>
  400bf0:	2110      	movs	r1, #16
  400bf2:	2015      	movs	r0, #21
  400bf4:	f000 fa4a 	bl	40108c <DisplayFreescaleLogo>
  400bf8:	20fa      	movs	r0, #250
  400bfa:	0080      	lsls	r0, r0, #2
  400bfc:	f003 f8c2 	bl	403d84 <DelayMs>
  400c00:	2110      	movs	r1, #16
  400c02:	2015      	movs	r0, #21
  400c04:	f000 fb3c 	bl	401280 <ClearFreescaleLogo>
  400c08:	f000 ffa5 	bl	401b56 <LCD_ClearDisplay>
  400c0c:	7d20      	ldrb	r0, [r4, #20]
  400c0e:	f000 fc11 	bl	401434 <DisplaySensorValue>
  400c12:	b001      	add	sp, #4
  400c14:	e32e      	b.n	401274 <??Subroutine5_0>
  400c16:	46c0      	nop			(mov r8, r8)

00400c18 <??weather_station_app_init_0>:
  400c18:	00402c45 	.word	0x00402c45
  400c1c:	00003f35 	.word	0x00003f35
  400c20:	0000ab41 	.word	0x0000ab41
  400c24:	00400e25 	.word	0x00400e25
  400c28:	00400e39 	.word	0x00400e39
  400c2c:	00400e6d 	.word	0x00400e6d
  400c30:	00400e59 	.word	0x00400e59
  400c34:	00403b28 	.word	0x00403b28
  400c38:	80004000 	.word	0x80004000
  400c3c:	80009000 	.word	0x80009000
  400c40:	800091c0 	.word	0x800091c0
  400c44:	80003000 	.word	0x80003000
  400c48:	80009200 	.word	0x80009200

00400c4c <??DataTable2>:
  400c4c:	00405244 	.word	0x00405244

00400c50 <weather_station_rx_cb>:
  400c50:	4807      	ldr	r0, [pc, #28]	(400c70 <??weather_station_rx_cb_0>)
  400c52:	6801      	ldr	r1, [r0, #0]
  400c54:	2210      	movs	r2, #16
  400c56:	400a      	ands	r2, r1
  400c58:	0911      	lsrs	r1, r2, #4
  400c5a:	2901      	cmp	r1, #1
  400c5c:	d106      	bne.n	400c6c <??weather_station_rx_cb_1>
  400c5e:	6801      	ldr	r1, [r0, #0]
  400c60:	2210      	movs	r2, #16
  400c62:	4391      	bics	r1, r2
  400c64:	6001      	str	r1, [r0, #0]
  400c66:	4803      	ldr	r0, [pc, #12]	(400c74 <??weather_station_rx_cb_0+0x4>)
  400c68:	2101      	movs	r1, #1
  400c6a:	7001      	strb	r1, [r0, #0]

00400c6c <??weather_station_rx_cb_1>:
  400c6c:	4770      	bx	lr
  400c6e:	46c0      	nop			(mov r8, r8)

00400c70 <??weather_station_rx_cb_0>:
  400c70:	004053b8 	.word	0x004053b8
  400c74:	00405254 	.word	0x00405254

00400c78 <weather_controller_process>:
  400c78:	b570      	push	{r4, r5, r6, lr}
  400c7a:	b084      	sub	sp, #16
  400c7c:	f001 fbd4 	bl	402428 <process_radio_msg>
  400c80:	4c64      	ldr	r4, [pc, #400]	(400e14 <??weather_controller_process_0>)
  400c82:	7c20      	ldrb	r0, [r4, #16]
  400c84:	2801      	cmp	r0, #1
  400c86:	d103      	bne.n	400c90 <??weather_controller_process_1>
  400c88:	2000      	movs	r0, #0
  400c8a:	7420      	strb	r0, [r4, #16]
  400c8c:	f000 f9a6 	bl	400fdc <process_incoming_msg>

00400c90 <??weather_controller_process_1>:
  400c90:	4861      	ldr	r0, [pc, #388]	(400e18 <??weather_controller_process_0+0x4>)
  400c92:	7800      	ldrb	r0, [r0, #0]
  400c94:	2800      	cmp	r0, #0
  400c96:	d110      	bne.n	400cba <??weather_controller_process_2>
  400c98:	4860      	ldr	r0, [pc, #384]	(400e1c <??weather_controller_process_0+0x8>)
  400c9a:	8801      	ldrh	r1, [r0, #0]
  400c9c:	2900      	cmp	r1, #0
  400c9e:	d00c      	beq.n	400cba <??weather_controller_process_2>
  400ca0:	2100      	movs	r1, #0
  400ca2:	8001      	strh	r1, [r0, #0]
  400ca4:	4668      	mov	r0, sp
  400ca6:	f000 fe47 	bl	401938 <cpy_uart_to_data_buff>
  400caa:	4668      	mov	r0, sp
  400cac:	7801      	ldrb	r1, [r0, #0]
  400cae:	29fd      	cmp	r1, #253
  400cb0:	d103      	bne.n	400cba <??weather_controller_process_2>
  400cb2:	7881      	ldrb	r1, [r0, #2]
  400cb4:	7840      	ldrb	r0, [r0, #1]
  400cb6:	f000 fddd 	bl	401874 <execute_uart_command>

00400cba <??weather_controller_process_2>:
  400cba:	2502      	movs	r5, #2
  400cbc:	7c60      	ldrb	r0, [r4, #17]
  400cbe:	4228      	tst	r0, r5
  400cc0:	d00e      	beq.n	400ce0 <??weather_controller_process_3>
  400cc2:	21fd      	movs	r1, #253
  400cc4:	4001      	ands	r1, r0
  400cc6:	7461      	strb	r1, [r4, #17]
  400cc8:	7ce1      	ldrb	r1, [r4, #19]
  400cca:	1e48      	subs	r0, r1, #1
  400ccc:	4180      	sbcs	r0, r0
  400cce:	0fc0      	lsrs	r0, r0, #31
  400cd0:	74e0      	strb	r0, [r4, #19]
  400cd2:	f000 fd9b 	bl	40180c <LoadCurrentMeasurementSystem>
  400cd6:	f000 ff3e 	bl	401b56 <LCD_ClearDisplay>
  400cda:	7d20      	ldrb	r0, [r4, #20]
  400cdc:	f000 fbaa 	bl	401434 <DisplaySensorValue>

00400ce0 <??weather_controller_process_3>:
  400ce0:	7c60      	ldrb	r0, [r4, #17]
  400ce2:	07c0      	lsls	r0, r0, #31
  400ce4:	d512      	bpl.n	400d0c <??weather_controller_process_4>
  400ce6:	7c60      	ldrb	r0, [r4, #17]
  400ce8:	21fe      	movs	r1, #254
  400cea:	4001      	ands	r1, r0
  400cec:	7461      	strb	r1, [r4, #17]
  400cee:	7d60      	ldrb	r0, [r4, #21]
  400cf0:	280f      	cmp	r0, #15
  400cf2:	d101      	bne.n	400cf8 <??weather_controller_process_5>
  400cf4:	2000      	movs	r0, #0
  400cf6:	e000      	b.n	400cfa <??weather_controller_process_6>

00400cf8 <??weather_controller_process_5>:
  400cf8:	1c40      	adds	r0, r0, #1

00400cfa <??weather_controller_process_6>:
  400cfa:	7560      	strb	r0, [r4, #21]
  400cfc:	7d60      	ldrb	r0, [r4, #21]
  400cfe:	f002 fe97 	bl	403a30 <MLMESetChannelRequest>
  400d02:	f000 ff28 	bl	401b56 <LCD_ClearDisplay>
  400d06:	7d20      	ldrb	r0, [r4, #20]
  400d08:	f000 fb94 	bl	401434 <DisplaySensorValue>

00400d0c <??weather_controller_process_4>:
  400d0c:	2604      	movs	r6, #4
  400d0e:	7c60      	ldrb	r0, [r4, #17]
  400d10:	4230      	tst	r0, r6
  400d12:	d00e      	beq.n	400d32 <??weather_controller_process_7>
  400d14:	21fb      	movs	r1, #251
  400d16:	4001      	ands	r1, r0
  400d18:	7461      	strb	r1, [r4, #17]
  400d1a:	7d20      	ldrb	r0, [r4, #20]
  400d1c:	280d      	cmp	r0, #13
  400d1e:	d101      	bne.n	400d24 <??weather_controller_process_8>
  400d20:	2005      	movs	r0, #5
  400d22:	e000      	b.n	400d26 <??weather_controller_process_9>

00400d24 <??weather_controller_process_8>:
  400d24:	1c80      	adds	r0, r0, #2

00400d26 <??weather_controller_process_9>:
  400d26:	7520      	strb	r0, [r4, #20]
  400d28:	f000 ff15 	bl	401b56 <LCD_ClearDisplay>
  400d2c:	7d20      	ldrb	r0, [r4, #20]
  400d2e:	f000 fb81 	bl	401434 <DisplaySensorValue>

00400d32 <??weather_controller_process_7>:
  400d32:	7c60      	ldrb	r0, [r4, #17]
  400d34:	0700      	lsls	r0, r0, #28
  400d36:	d50d      	bpl.n	400d54 <??weather_controller_process_10>
  400d38:	7c60      	ldrb	r0, [r4, #17]
  400d3a:	21f7      	movs	r1, #247
  400d3c:	4001      	ands	r1, r0
  400d3e:	7461      	strb	r1, [r4, #17]
  400d40:	7da0      	ldrb	r0, [r4, #22]
  400d42:	2801      	cmp	r0, #1
  400d44:	d101      	bne.n	400d4a <??weather_controller_process_11>
  400d46:	2000      	movs	r0, #0
  400d48:	e000      	b.n	400d4c <??weather_controller_process_12>

00400d4a <??weather_controller_process_11>:
  400d4a:	2001      	movs	r0, #1

00400d4c <??weather_controller_process_12>:
  400d4c:	75a0      	strb	r0, [r4, #22]
  400d4e:	7da0      	ldrb	r0, [r4, #22]
  400d50:	f001 f9a8 	bl	4020a4 <LCD_SetBacklight>

00400d54 <??weather_controller_process_10>:
  400d54:	7ee0      	ldrb	r0, [r4, #27]
  400d56:	2800      	cmp	r0, #0
  400d58:	d006      	beq.n	400d68 <??weather_controller_process_13>
  400d5a:	2802      	cmp	r0, #2
  400d5c:	d035      	beq.n	400dca <??weather_controller_process_14>
  400d5e:	d305      	bcc.n	400d6c <??weather_controller_process_15>
  400d60:	2804      	cmp	r0, #4
  400d62:	d046      	beq.n	400df2 <??weather_controller_process_16>
  400d64:	d31e      	bcc.n	400da4 <??weather_controller_process_17>
  400d66:	e018      	b.n	400d9a <??weather_controller_process_18>

00400d68 <??weather_controller_process_13>:
  400d68:	2001      	movs	r0, #1
  400d6a:	e015      	b.n	400d98 <??weather_controller_process_19>

00400d6c <??weather_controller_process_15>:
  400d6c:	482c      	ldr	r0, [pc, #176]	(400e20 <??weather_controller_process_0+0xc>)
  400d6e:	2107      	movs	r1, #7
  400d70:	7802      	ldrb	r2, [r0, #0]
  400d72:	400a      	ands	r2, r1
  400d74:	2328      	movs	r3, #40
  400d76:	4313      	orrs	r3, r2
  400d78:	7003      	strb	r3, [r0, #0]
  400d7a:	7820      	ldrb	r0, [r4, #0]
  400d7c:	4001      	ands	r1, r0
  400d7e:	2020      	movs	r0, #32
  400d80:	4308      	orrs	r0, r1
  400d82:	7020      	strb	r0, [r4, #0]
  400d84:	6860      	ldr	r0, [r4, #4]
  400d86:	2141      	movs	r1, #65
  400d88:	7081      	strb	r1, [r0, #2]
  400d8a:	6860      	ldr	r0, [r4, #4]
  400d8c:	2143      	movs	r1, #67
  400d8e:	70c1      	strb	r1, [r0, #3]
  400d90:	6860      	ldr	r0, [r4, #4]
  400d92:	214b      	movs	r1, #75
  400d94:	7101      	strb	r1, [r0, #4]
  400d96:	2003      	movs	r0, #3

00400d98 <??weather_controller_process_19>:
  400d98:	76e0      	strb	r0, [r4, #27]

00400d9a <??weather_controller_process_18>:
  400d9a:	b004      	add	sp, #16
  400d9c:	9803      	ldr	r0, [sp, #12]
  400d9e:	bc70      	pop	{r4, r5, r6}
  400da0:	b001      	add	sp, #4
  400da2:	4700      	bx	r0

00400da4 <??weather_controller_process_17>:
  400da4:	481e      	ldr	r0, [pc, #120]	(400e20 <??weather_controller_process_0+0xc>)
  400da6:	7801      	ldrb	r1, [r0, #0]
  400da8:	08c9      	lsrs	r1, r1, #3
  400daa:	2905      	cmp	r1, #5
  400dac:	d005      	beq.n	400dba <??weather_controller_process_20>
  400dae:	2906      	cmp	r1, #6
  400db0:	d003      	beq.n	400dba <??weather_controller_process_20>
  400db2:	2908      	cmp	r1, #8
  400db4:	d001      	beq.n	400dba <??weather_controller_process_20>
  400db6:	2904      	cmp	r1, #4
  400db8:	d1ef      	bne.n	400d9a <??weather_controller_process_18>

00400dba <??weather_controller_process_20>:
  400dba:	2143      	movs	r1, #67
  400dbc:	7201      	strb	r1, [r0, #8]
  400dbe:	21f0      	movs	r1, #240
  400dc0:	0209      	lsls	r1, r1, #8
  400dc2:	f002 fe47 	bl	403a54 <MLMERXEnableRequest>
  400dc6:	76e5      	strb	r5, [r4, #27]
  400dc8:	e7e7      	b.n	400d9a <??weather_controller_process_18>

00400dca <??weather_controller_process_14>:
  400dca:	4815      	ldr	r0, [pc, #84]	(400e20 <??weather_controller_process_0+0xc>)
  400dcc:	7801      	ldrb	r1, [r0, #0]
  400dce:	08c9      	lsrs	r1, r1, #3
  400dd0:	2905      	cmp	r1, #5
  400dd2:	d005      	beq.n	400de0 <??weather_controller_process_21>
  400dd4:	2906      	cmp	r1, #6
  400dd6:	d003      	beq.n	400de0 <??weather_controller_process_21>
  400dd8:	2908      	cmp	r1, #8
  400dda:	d001      	beq.n	400de0 <??weather_controller_process_21>
  400ddc:	2904      	cmp	r1, #4
  400dde:	d101      	bne.n	400de4 <??weather_controller_process_22>

00400de0 <??weather_controller_process_21>:
  400de0:	2003      	movs	r0, #3
  400de2:	76e0      	strb	r0, [r4, #27]

00400de4 <??weather_controller_process_22>:
  400de4:	7ca0      	ldrb	r0, [r4, #18]
  400de6:	2801      	cmp	r0, #1
  400de8:	d1d7      	bne.n	400d9a <??weather_controller_process_18>
  400dea:	2000      	movs	r0, #0
  400dec:	74a0      	strb	r0, [r4, #18]
  400dee:	76e6      	strb	r6, [r4, #27]
  400df0:	e7d3      	b.n	400d9a <??weather_controller_process_18>

00400df2 <??weather_controller_process_16>:
  400df2:	7820      	ldrb	r0, [r4, #0]
  400df4:	08c0      	lsrs	r0, r0, #3
  400df6:	2804      	cmp	r0, #4
  400df8:	d005      	beq.n	400e06 <??weather_controller_process_23>
  400dfa:	2805      	cmp	r0, #5
  400dfc:	d003      	beq.n	400e06 <??weather_controller_process_23>
  400dfe:	2807      	cmp	r0, #7
  400e00:	d001      	beq.n	400e06 <??weather_controller_process_23>
  400e02:	2803      	cmp	r0, #3
  400e04:	d104      	bne.n	400e10 <??weather_controller_process_24>

00400e06 <??weather_controller_process_23>:
  400e06:	2005      	movs	r0, #5
  400e08:	7220      	strb	r0, [r4, #8]
  400e0a:	0020      	lsls	r0, r4, #0
  400e0c:	f002 fe06 	bl	403a1c <MCPSDataRequest>

00400e10 <??weather_controller_process_24>:
  400e10:	76e5      	strb	r5, [r4, #27]

00400e12 <??weather_controller_process_25>:
  400e12:	e7c2      	b.n	400d9a <??weather_controller_process_18>

00400e14 <??weather_controller_process_0>:
  400e14:	00405244 	.word	0x00405244
  400e18:	004052a4 	.word	0x004052a4
  400e1c:	004052a6 	.word	0x004052a6
  400e20:	00405280 	.word	0x00405280

00400e24 <change_measurement_system_isr>:
  400e24:	b580      	push	{r7, lr}
  400e26:	2064      	movs	r0, #100
  400e28:	f002 ffac 	bl	403d84 <DelayMs>
  400e2c:	4801      	ldr	r0, [pc, #4]	(400e34 <??change_measurement_system_isr_0>)
  400e2e:	7c41      	ldrb	r1, [r0, #17]
  400e30:	2202      	movs	r2, #2
  400e32:	e009      	b.n	400e48 <?Subroutine2>

00400e34 <??change_measurement_system_isr_0>:
  400e34:	00405244 	.word	0x00405244

00400e38 <change_display_isr>:
  400e38:	b580      	push	{r7, lr}
  400e3a:	2064      	movs	r0, #100
  400e3c:	f002 ffa2 	bl	403d84 <DelayMs>
  400e40:	4804      	ldr	r0, [pc, #16]	(400e54 <??DataTable3>)
  400e42:	7c41      	ldrb	r1, [r0, #17]
  400e44:	2204      	movs	r2, #4
  400e46:	46c0      	nop			(mov r8, r8)

00400e48 <?Subroutine2>:
  400e48:	430a      	orrs	r2, r1
  400e4a:	7442      	strb	r2, [r0, #17]

00400e4c <??Subroutine4_0>:
  400e4c:	9801      	ldr	r0, [sp, #4]
  400e4e:	b002      	add	sp, #8
  400e50:	4700      	bx	r0
	...

00400e54 <??DataTable3>:
  400e54:	00405244 	.word	0x00405244

00400e58 <change_channel_isr>:
  400e58:	b580      	push	{r7, lr}
  400e5a:	2064      	movs	r0, #100
  400e5c:	f002 ff92 	bl	403d84 <DelayMs>
  400e60:	4801      	ldr	r0, [pc, #4]	(400e68 <??change_channel_isr_0>)
  400e62:	7c41      	ldrb	r1, [r0, #17]
  400e64:	2201      	movs	r2, #1
  400e66:	e7ef      	b.n	400e48 <?Subroutine2>

00400e68 <??change_channel_isr_0>:
  400e68:	00405244 	.word	0x00405244

00400e6c <change_back_light_isr>:
  400e6c:	b580      	push	{r7, lr}
  400e6e:	2064      	movs	r0, #100
  400e70:	f002 ff88 	bl	403d84 <DelayMs>
  400e74:	4801      	ldr	r0, [pc, #4]	(400e7c <??change_back_light_isr_0>)
  400e76:	7c41      	ldrb	r1, [r0, #17]
  400e78:	2208      	movs	r2, #8
  400e7a:	e7e5      	b.n	400e48 <?Subroutine2>

00400e7c <??change_back_light_isr_0>:
  400e7c:	00405244 	.word	0x00405244

00400e80 <adjust_sensor_to_current_measure_system>:
  400e80:	b5f8      	push	{r3, r4, r5, r6, r7, lr}
  400e82:	1f49      	subs	r1, r1, #5
  400e84:	d009      	beq.n	400e9a <??adjust_sensor_to_current_measure_system_0>
  400e86:	1e89      	subs	r1, r1, #2
  400e88:	d00e      	beq.n	400ea8 <??adjust_sensor_to_current_measure_system_1>
  400e8a:	1e89      	subs	r1, r1, #2
  400e8c:	d030      	beq.n	400ef0 <??adjust_sensor_to_current_measure_system_2>
  400e8e:	1e89      	subs	r1, r1, #2
  400e90:	d050      	beq.n	400f34 <??adjust_sensor_to_current_measure_system_3>
  400e92:	1e89      	subs	r1, r1, #2
  400e94:	d100      	bne.n	400e98 <adjust_sensor_to_current_measure_system+0x18>
  400e96:	e083      	b.n	400fa0 <??adjust_sensor_to_current_measure_system_4>
  400e98:	e08f      	b.n	400fba <??adjust_sensor_to_current_measure_system_5>

00400e9a <??adjust_sensor_to_current_measure_system_0>:
  400e9a:	21b4      	movs	r1, #180
  400e9c:	0049      	lsls	r1, r1, #1
  400e9e:	1a09      	subs	r1, r1, r0
  400ea0:	4a49      	ldr	r2, [pc, #292]	(400fc8 <??adjust_sensor_to_current_measure_system_6>)
  400ea2:	8011      	strh	r1, [r2, #0]
  400ea4:	0002      	lsls	r2, r0, #0
  400ea6:	e088      	b.n	400fba <??adjust_sensor_to_current_measure_system_5>

00400ea8 <??adjust_sensor_to_current_measure_system_1>:
  400ea8:	0007      	lsls	r7, r0, #0
  400eaa:	2164      	movs	r1, #100
  400eac:	f7ff fd28 	bl	400900 <?Veneer (3) for __aeabi_idivmod>
  400eb0:	0204      	lsls	r4, r0, #8
  400eb2:	0038      	lsls	r0, r7, #0
  400eb4:	2164      	movs	r1, #100
  400eb6:	f7ff fd23 	bl	400900 <?Veneer (3) for __aeabi_idivmod>
  400eba:	4321      	orrs	r1, r4
  400ebc:	000e      	lsls	r6, r1, #0
  400ebe:	4c43      	ldr	r4, [pc, #268]	(400fcc <??adjust_sensor_to_current_measure_system_6+0x4>)
  400ec0:	8466      	strh	r6, [r4, #34]
  400ec2:	4843      	ldr	r0, [pc, #268]	(400fd0 <??adjust_sensor_to_current_measure_system_6+0x8>)
  400ec4:	4347      	muls	r7, r0
  400ec6:	0038      	lsls	r0, r7, #0
  400ec8:	21fa      	movs	r1, #250
  400eca:	0089      	lsls	r1, r1, #2
  400ecc:	f7ff fd18 	bl	400900 <?Veneer (3) for __aeabi_idivmod>
  400ed0:	0007      	lsls	r7, r0, #0
  400ed2:	2164      	movs	r1, #100
  400ed4:	f7ff fd3c 	bl	400950 <?Veneer (3) for __aeabi_uidivmod>
  400ed8:	0200      	lsls	r0, r0, #8
  400eda:	b501      	push	{r0, lr}
  400edc:	0038      	lsls	r0, r7, #0
  400ede:	2164      	movs	r1, #100
  400ee0:	f7ff fd36 	bl	400950 <?Veneer (3) for __aeabi_uidivmod>
  400ee4:	9800      	ldr	r0, [sp, #0]
  400ee6:	b002      	add	sp, #8
  400ee8:	4301      	orrs	r1, r0
  400eea:	8521      	strh	r1, [r4, #40]

00400eec <??adjust_sensor_to_current_measure_system_7>:
  400eec:	0032      	lsls	r2, r6, #0
  400eee:	e064      	b.n	400fba <??adjust_sensor_to_current_measure_system_5>

00400ef0 <??adjust_sensor_to_current_measure_system_2>:
  400ef0:	0007      	lsls	r7, r0, #0
  400ef2:	2164      	movs	r1, #100
  400ef4:	f7ff fd04 	bl	400900 <?Veneer (3) for __aeabi_idivmod>
  400ef8:	0204      	lsls	r4, r0, #8
  400efa:	0038      	lsls	r0, r7, #0
  400efc:	2164      	movs	r1, #100
  400efe:	f7ff fcff 	bl	400900 <?Veneer (3) for __aeabi_idivmod>
  400f02:	4321      	orrs	r1, r4
  400f04:	000e      	lsls	r6, r1, #0
  400f06:	4c31      	ldr	r4, [pc, #196]	(400fcc <??adjust_sensor_to_current_measure_system_6+0x4>)
  400f08:	8426      	strh	r6, [r4, #32]
  400f0a:	2091      	movs	r0, #145
  400f0c:	4347      	muls	r7, r0
  400f0e:	0038      	lsls	r0, r7, #0
  400f10:	4930      	ldr	r1, [pc, #192]	(400fd4 <??adjust_sensor_to_current_measure_system_6+0xc>)
  400f12:	f7ff fcf5 	bl	400900 <?Veneer (3) for __aeabi_idivmod>
  400f16:	0007      	lsls	r7, r0, #0
  400f18:	2164      	movs	r1, #100
  400f1a:	f7ff fd19 	bl	400950 <?Veneer (3) for __aeabi_uidivmod>
  400f1e:	0200      	lsls	r0, r0, #8
  400f20:	b501      	push	{r0, lr}
  400f22:	0038      	lsls	r0, r7, #0
  400f24:	2164      	movs	r1, #100
  400f26:	f7ff fd13 	bl	400950 <?Veneer (3) for __aeabi_uidivmod>
  400f2a:	9800      	ldr	r0, [sp, #0]
  400f2c:	b002      	add	sp, #8
  400f2e:	4301      	orrs	r1, r0
  400f30:	84e1      	strh	r1, [r4, #38]
  400f32:	e7db      	b.n	400eec <??adjust_sensor_to_current_measure_system_7>

00400f34 <??adjust_sensor_to_current_measure_system_3>:
  400f34:	4928      	ldr	r1, [pc, #160]	(400fd8 <??adjust_sensor_to_current_measure_system_6+0x10>)
  400f36:	4288      	cmp	r0, r1
  400f38:	d303      	bcc.n	400f42 <??adjust_sensor_to_current_measure_system_8>
  400f3a:	0401      	lsls	r1, r0, #16
  400f3c:	1a08      	subs	r0, r1, r0
  400f3e:	2101      	movs	r1, #1
  400f40:	e000      	b.n	400f44 <??adjust_sensor_to_current_measure_system_9>

00400f42 <??adjust_sensor_to_current_measure_system_8>:
  400f42:	2100      	movs	r1, #0

00400f44 <??adjust_sensor_to_current_measure_system_9>:
  400f44:	4c21      	ldr	r4, [pc, #132]	(400fcc <??adjust_sensor_to_current_measure_system_6+0x4>)
  400f46:	75e1      	strb	r1, [r4, #23]
  400f48:	0400      	lsls	r0, r0, #16
  400f4a:	0c00      	lsrs	r0, r0, #16
  400f4c:	0007      	lsls	r7, r0, #0
  400f4e:	2164      	movs	r1, #100
  400f50:	f7ff fcd6 	bl	400900 <?Veneer (3) for __aeabi_idivmod>
  400f54:	0206      	lsls	r6, r0, #8
  400f56:	0038      	lsls	r0, r7, #0
  400f58:	2164      	movs	r1, #100
  400f5a:	f7ff fcd1 	bl	400900 <?Veneer (3) for __aeabi_idivmod>
  400f5e:	4331      	orrs	r1, r6
  400f60:	000e      	lsls	r6, r1, #0
  400f62:	83e6      	strh	r6, [r4, #30]
  400f64:	00f8      	lsls	r0, r7, #3
  400f66:	19c0      	adds	r0, r0, r7
  400f68:	0040      	lsls	r0, r0, #1
  400f6a:	210a      	movs	r1, #10
  400f6c:	f7ff fcc8 	bl	400900 <?Veneer (3) for __aeabi_idivmod>
  400f70:	21c8      	movs	r1, #200
  400f72:	0109      	lsls	r1, r1, #4
  400f74:	1847      	adds	r7, r0, r1
  400f76:	0038      	lsls	r0, r7, #0
  400f78:	2164      	movs	r1, #100
  400f7a:	f7ff fce9 	bl	400950 <?Veneer (3) for __aeabi_uidivmod>
  400f7e:	0200      	lsls	r0, r0, #8
  400f80:	b501      	push	{r0, lr}
  400f82:	0038      	lsls	r0, r7, #0
  400f84:	2164      	movs	r1, #100
  400f86:	f7ff fce3 	bl	400950 <?Veneer (3) for __aeabi_uidivmod>
  400f8a:	9800      	ldr	r0, [sp, #0]
  400f8c:	b002      	add	sp, #8
  400f8e:	4301      	orrs	r1, r0
  400f90:	84a1      	strh	r1, [r4, #36]
  400f92:	7de0      	ldrb	r0, [r4, #23]
  400f94:	2800      	cmp	r0, #0
  400f96:	d0a9      	beq.n	400eec <??adjust_sensor_to_current_measure_system_7>
  400f98:	2280      	movs	r2, #128
  400f9a:	0212      	lsls	r2, r2, #8
  400f9c:	4332      	orrs	r2, r6
  400f9e:	e00c      	b.n	400fba <??adjust_sensor_to_current_measure_system_5>

00400fa0 <??adjust_sensor_to_current_measure_system_4>:
  400fa0:	0007      	lsls	r7, r0, #0
  400fa2:	2164      	movs	r1, #100
  400fa4:	f7ff fcac 	bl	400900 <?Veneer (3) for __aeabi_idivmod>
  400fa8:	0204      	lsls	r4, r0, #8
  400faa:	0038      	lsls	r0, r7, #0
  400fac:	2164      	movs	r1, #100
  400fae:	f7ff fca7 	bl	400900 <?Veneer (3) for __aeabi_idivmod>
  400fb2:	4321      	orrs	r1, r4
  400fb4:	4c05      	ldr	r4, [pc, #20]	(400fcc <??adjust_sensor_to_current_measure_system_6+0x4>)
  400fb6:	8561      	strh	r1, [r4, #42]
  400fb8:	000a      	lsls	r2, r1, #0

00400fba <??adjust_sensor_to_current_measure_system_5>:
  400fba:	0410      	lsls	r0, r2, #16
  400fbc:	0c00      	lsrs	r0, r0, #16
  400fbe:	b001      	add	sp, #4
  400fc0:	9904      	ldr	r1, [sp, #16]
  400fc2:	bcf0      	pop	{r4, r5, r6, r7}
  400fc4:	b001      	add	sp, #4
  400fc6:	4708      	bx	r1

00400fc8 <??adjust_sensor_to_current_measure_system_6>:
  400fc8:	00405270 	.word	0x00405270
  400fcc:	00405244 	.word	0x00405244
  400fd0:	0000026d 	.word	0x0000026d
  400fd4:	00002710 	.word	0x00002710
  400fd8:	00003909 	.word	0x00003909

00400fdc <process_incoming_msg>:
  400fdc:	b5f0      	push	{r4, r5, r6, r7, lr}
  400fde:	b085      	sub	sp, #20
  400fe0:	4f24      	ldr	r7, [pc, #144]	(401074 <??process_incoming_msg_0>)
  400fe2:	6878      	ldr	r0, [r7, #4]
  400fe4:	78c0      	ldrb	r0, [r0, #3]
  400fe6:	2801      	cmp	r0, #1
  400fe8:	d142      	bne.n	401070 <??process_incoming_msg_1>
  400fea:	4923      	ldr	r1, [pc, #140]	(401078 <??process_incoming_msg_0+0x4>)
  400fec:	7008      	strb	r0, [r1, #0]
  400fee:	6879      	ldr	r1, [r7, #4]
  400ff0:	7909      	ldrb	r1, [r1, #4]
  400ff2:	4a22      	ldr	r2, [pc, #136]	(40107c <??process_incoming_msg_0+0x8>)
  400ff4:	6812      	ldr	r2, [r2, #0]
  400ff6:	7151      	strb	r1, [r2, #5]
  400ff8:	466e      	mov	r6, sp
  400ffa:	21fe      	movs	r1, #254
  400ffc:	7031      	strb	r1, [r6, #0]
  400ffe:	7070      	strb	r0, [r6, #1]
  401000:	6878      	ldr	r0, [r7, #4]
  401002:	7900      	ldrb	r0, [r0, #4]
  401004:	70b0      	strb	r0, [r6, #2]
  401006:	6878      	ldr	r0, [r7, #4]
  401008:	7940      	ldrb	r0, [r0, #5]
  40100a:	70f0      	strb	r0, [r6, #3]
  40100c:	6878      	ldr	r0, [r7, #4]
  40100e:	7980      	ldrb	r0, [r0, #6]
  401010:	7130      	strb	r0, [r6, #4]
  401012:	2405      	movs	r4, #5
  401014:	466d      	mov	r5, sp
  401016:	1d6d      	adds	r5, r5, #5

00401018 <??process_incoming_msg_2>:
  401018:	6878      	ldr	r0, [r7, #4]
  40101a:	1900      	adds	r0, r0, r4
  40101c:	0621      	lsls	r1, r4, #24
  40101e:	0e09      	lsrs	r1, r1, #24
  401020:	7882      	ldrb	r2, [r0, #2]
  401022:	0212      	lsls	r2, r2, #8
  401024:	78c0      	ldrb	r0, [r0, #3]
  401026:	4310      	orrs	r0, r2
  401028:	f7ff ff2a 	bl	400e80 <adjust_sensor_to_current_measure_system>
  40102c:	0a01      	lsrs	r1, r0, #8
  40102e:	7029      	strb	r1, [r5, #0]
  401030:	7068      	strb	r0, [r5, #1]
  401032:	1ca4      	adds	r4, r4, #2
  401034:	1cad      	adds	r5, r5, #2
  401036:	0620      	lsls	r0, r4, #24
  401038:	0e00      	lsrs	r0, r0, #24
  40103a:	280e      	cmp	r0, #14
  40103c:	d3ec      	bcc.n	401018 <??process_incoming_msg_2>
  40103e:	6878      	ldr	r0, [r7, #4]
  401040:	7c40      	ldrb	r0, [r0, #17]
  401042:	73f0      	strb	r0, [r6, #15]
  401044:	20ff      	movs	r0, #255
  401046:	7430      	strb	r0, [r6, #16]
  401048:	480d      	ldr	r0, [pc, #52]	(401080 <??process_incoming_msg_0+0xc>)
  40104a:	7800      	ldrb	r0, [r0, #0]
  40104c:	2801      	cmp	r0, #1
  40104e:	d10b      	bne.n	401068 <??process_incoming_msg_3>
  401050:	78f0      	ldrb	r0, [r6, #3]
  401052:	490c      	ldr	r1, [pc, #48]	(401084 <??process_incoming_msg_0+0x10>)
  401054:	7809      	ldrb	r1, [r1, #0]
  401056:	4281      	cmp	r1, r0
  401058:	d006      	beq.n	401068 <??process_incoming_msg_3>
  40105a:	490a      	ldr	r1, [pc, #40]	(401084 <??process_incoming_msg_0+0x10>)
  40105c:	7008      	strb	r0, [r1, #0]
  40105e:	2211      	movs	r2, #17
  401060:	4669      	mov	r1, sp
  401062:	2000      	movs	r0, #0
  401064:	f402 f808 	bl	3078 <UartWriteData>

00401068 <??process_incoming_msg_3>:
  401068:	4807      	ldr	r0, [pc, #28]	(401088 <??process_incoming_msg_0+0x14>)
  40106a:	7800      	ldrb	r0, [r0, #0]
  40106c:	f000 f9e2 	bl	401434 <DisplaySensorValue>

00401070 <??process_incoming_msg_1>:
  401070:	b005      	add	sp, #20
  401072:	e0ff      	b.n	401274 <??Subroutine5_0>

00401074 <??process_incoming_msg_0>:
  401074:	00405280 	.word	0x00405280
  401078:	00405256 	.word	0x00405256
  40107c:	00405248 	.word	0x00405248
  401080:	0040525d 	.word	0x0040525d
  401084:	00405260 	.word	0x00405260
  401088:	00405258 	.word	0x00405258

0040108c <DisplayFreescaleLogo>:
  40108c:	b5f0      	push	{r4, r5, r6, r7, lr}
  40108e:	b083      	sub	sp, #12
  401090:	0005      	lsls	r5, r0, #0
  401092:	000c      	lsls	r4, r1, #0
  401094:	4668      	mov	r0, sp
  401096:	4979      	ldr	r1, [pc, #484]	(40127c <??Subroutine5_1>)
  401098:	c94c      	ldmia	r1!, {r2, r3, r6}
  40109a:	c04c      	stmia	r0!, {r2, r3, r6}
  40109c:	2600      	movs	r6, #0

0040109e <??DisplayFreescaleLogo_0>:
  40109e:	2201      	movs	r2, #1
  4010a0:	0621      	lsls	r1, r4, #24
  4010a2:	0e09      	lsrs	r1, r1, #24
  4010a4:	0628      	lsls	r0, r5, #24
  4010a6:	0e00      	lsrs	r0, r0, #24
  4010a8:	f001 f807 	bl	4020ba <LCD_WritePixel>
  4010ac:	1c67      	adds	r7, r4, #1
  4010ae:	2201      	movs	r2, #1
  4010b0:	0639      	lsls	r1, r7, #24
  4010b2:	0e09      	lsrs	r1, r1, #24
  4010b4:	0628      	lsls	r0, r5, #24
  4010b6:	0e00      	lsrs	r0, r0, #24
  4010b8:	f000 ffff 	bl	4020ba <LCD_WritePixel>
  4010bc:	2201      	movs	r2, #1
  4010be:	0639      	lsls	r1, r7, #24
  4010c0:	0e09      	lsrs	r1, r1, #24
  4010c2:	1c68      	adds	r0, r5, #1
  4010c4:	0600      	lsls	r0, r0, #24
  4010c6:	0e00      	lsrs	r0, r0, #24
  4010c8:	f000 fff7 	bl	4020ba <LCD_WritePixel>
  4010cc:	2201      	movs	r2, #1
  4010ce:	0639      	lsls	r1, r7, #24
  4010d0:	0e09      	lsrs	r1, r1, #24
  4010d2:	1e68      	subs	r0, r5, #1
  4010d4:	0600      	lsls	r0, r0, #24
  4010d6:	0e00      	lsrs	r0, r0, #24
  4010d8:	f000 ffef 	bl	4020ba <LCD_WritePixel>
  4010dc:	1ca7      	adds	r7, r4, #2
  4010de:	2201      	movs	r2, #1
  4010e0:	0639      	lsls	r1, r7, #24
  4010e2:	0e09      	lsrs	r1, r1, #24
  4010e4:	1ea8      	subs	r0, r5, #2
  4010e6:	0600      	lsls	r0, r0, #24
  4010e8:	0e00      	lsrs	r0, r0, #24
  4010ea:	f000 ffe6 	bl	4020ba <LCD_WritePixel>
  4010ee:	2201      	movs	r2, #1
  4010f0:	0639      	lsls	r1, r7, #24
  4010f2:	0e09      	lsrs	r1, r1, #24
  4010f4:	1e68      	subs	r0, r5, #1
  4010f6:	0600      	lsls	r0, r0, #24
  4010f8:	0e00      	lsrs	r0, r0, #24
  4010fa:	f000 ffde 	bl	4020ba <LCD_WritePixel>
  4010fe:	2201      	movs	r2, #1
  401100:	0639      	lsls	r1, r7, #24
  401102:	0e09      	lsrs	r1, r1, #24
  401104:	0628      	lsls	r0, r5, #24
  401106:	0e00      	lsrs	r0, r0, #24
  401108:	f000 ffd7 	bl	4020ba <LCD_WritePixel>
  40110c:	2201      	movs	r2, #1
  40110e:	0639      	lsls	r1, r7, #24
  401110:	0e09      	lsrs	r1, r1, #24
  401112:	1c68      	adds	r0, r5, #1
  401114:	0600      	lsls	r0, r0, #24
  401116:	0e00      	lsrs	r0, r0, #24
  401118:	f000 ffcf 	bl	4020ba <LCD_WritePixel>
  40111c:	2201      	movs	r2, #1
  40111e:	0639      	lsls	r1, r7, #24
  401120:	0e09      	lsrs	r1, r1, #24
  401122:	1ca8      	adds	r0, r5, #2
  401124:	0600      	lsls	r0, r0, #24
  401126:	0e00      	lsrs	r0, r0, #24
  401128:	f000 ffc7 	bl	4020ba <LCD_WritePixel>
  40112c:	2201      	movs	r2, #1
  40112e:	1ce1      	adds	r1, r4, #3
  401130:	0609      	lsls	r1, r1, #24
  401132:	0e09      	lsrs	r1, r1, #24
  401134:	1ee8      	subs	r0, r5, #3
  401136:	0600      	lsls	r0, r0, #24
  401138:	0e00      	lsrs	r0, r0, #24
  40113a:	f000 ffbe 	bl	4020ba <LCD_WritePixel>
  40113e:	2201      	movs	r2, #1
  401140:	1ce1      	adds	r1, r4, #3
  401142:	0609      	lsls	r1, r1, #24
  401144:	0e09      	lsrs	r1, r1, #24
  401146:	1ea8      	subs	r0, r5, #2
  401148:	0600      	lsls	r0, r0, #24
  40114a:	0e00      	lsrs	r0, r0, #24
  40114c:	f000 ffb5 	bl	4020ba <LCD_WritePixel>
  401150:	2201      	movs	r2, #1
  401152:	1ce1      	adds	r1, r4, #3
  401154:	0609      	lsls	r1, r1, #24
  401156:	0e09      	lsrs	r1, r1, #24
  401158:	1e68      	subs	r0, r5, #1
  40115a:	0600      	lsls	r0, r0, #24
  40115c:	0e00      	lsrs	r0, r0, #24
  40115e:	f000 ffac 	bl	4020ba <LCD_WritePixel>
  401162:	2201      	movs	r2, #1
  401164:	1ce1      	adds	r1, r4, #3
  401166:	0609      	lsls	r1, r1, #24
  401168:	0e09      	lsrs	r1, r1, #24
  40116a:	0628      	lsls	r0, r5, #24
  40116c:	0e00      	lsrs	r0, r0, #24
  40116e:	f000 ffa4 	bl	4020ba <LCD_WritePixel>
  401172:	2201      	movs	r2, #1
  401174:	1ce1      	adds	r1, r4, #3
  401176:	0609      	lsls	r1, r1, #24
  401178:	0e09      	lsrs	r1, r1, #24
  40117a:	1c68      	adds	r0, r5, #1
  40117c:	0600      	lsls	r0, r0, #24
  40117e:	0e00      	lsrs	r0, r0, #24
  401180:	f000 ff9b 	bl	4020ba <LCD_WritePixel>
  401184:	1d27      	adds	r7, r4, #4
  401186:	2201      	movs	r2, #1
  401188:	0639      	lsls	r1, r7, #24
  40118a:	0e09      	lsrs	r1, r1, #24
  40118c:	1f28      	subs	r0, r5, #4
  40118e:	0600      	lsls	r0, r0, #24
  401190:	0e00      	lsrs	r0, r0, #24
  401192:	f000 ff92 	bl	4020ba <LCD_WritePixel>
  401196:	2201      	movs	r2, #1
  401198:	0639      	lsls	r1, r7, #24
  40119a:	0e09      	lsrs	r1, r1, #24
  40119c:	1ee8      	subs	r0, r5, #3
  40119e:	0600      	lsls	r0, r0, #24
  4011a0:	0e00      	lsrs	r0, r0, #24
  4011a2:	f000 ff8a 	bl	4020ba <LCD_WritePixel>
  4011a6:	2201      	movs	r2, #1
  4011a8:	0639      	lsls	r1, r7, #24
  4011aa:	0e09      	lsrs	r1, r1, #24
  4011ac:	1ea8      	subs	r0, r5, #2
  4011ae:	0600      	lsls	r0, r0, #24
  4011b0:	0e00      	lsrs	r0, r0, #24
  4011b2:	f000 ff82 	bl	4020ba <LCD_WritePixel>
  4011b6:	2201      	movs	r2, #1
  4011b8:	0639      	lsls	r1, r7, #24
  4011ba:	0e09      	lsrs	r1, r1, #24
  4011bc:	1e68      	subs	r0, r5, #1
  4011be:	0600      	lsls	r0, r0, #24
  4011c0:	0e00      	lsrs	r0, r0, #24
  4011c2:	f000 ff7a 	bl	4020ba <LCD_WritePixel>
  4011c6:	2201      	movs	r2, #1
  4011c8:	0639      	lsls	r1, r7, #24
  4011ca:	0e09      	lsrs	r1, r1, #24
  4011cc:	0628      	lsls	r0, r5, #24
  4011ce:	0e00      	lsrs	r0, r0, #24
  4011d0:	f000 ff73 	bl	4020ba <LCD_WritePixel>
  4011d4:	1d67      	adds	r7, r4, #5
  4011d6:	2201      	movs	r2, #1
  4011d8:	0639      	lsls	r1, r7, #24
  4011da:	0e09      	lsrs	r1, r1, #24
  4011dc:	1ee8      	subs	r0, r5, #3
  4011de:	0600      	lsls	r0, r0, #24
  4011e0:	0e00      	lsrs	r0, r0, #24
  4011e2:	f000 ff6a 	bl	4020ba <LCD_WritePixel>
  4011e6:	2201      	movs	r2, #1
  4011e8:	0639      	lsls	r1, r7, #24
  4011ea:	0e09      	lsrs	r1, r1, #24
  4011ec:	1ea8      	subs	r0, r5, #2
  4011ee:	0600      	lsls	r0, r0, #24
  4011f0:	0e00      	lsrs	r0, r0, #24
  4011f2:	f000 ff62 	bl	4020ba <LCD_WritePixel>
  4011f6:	2201      	movs	r2, #1
  4011f8:	0639      	lsls	r1, r7, #24
  4011fa:	0e09      	lsrs	r1, r1, #24
  4011fc:	1e68      	subs	r0, r5, #1
  4011fe:	0600      	lsls	r0, r0, #24
  401200:	0e00      	lsrs	r0, r0, #24
  401202:	f000 ff5a 	bl	4020ba <LCD_WritePixel>
  401206:	1da7      	adds	r7, r4, #6
  401208:	2201      	movs	r2, #1
  40120a:	0639      	lsls	r1, r7, #24
  40120c:	0e09      	lsrs	r1, r1, #24
  40120e:	1ea8      	subs	r0, r5, #2
  401210:	0600      	lsls	r0, r0, #24
  401212:	0e00      	lsrs	r0, r0, #24
  401214:	f000 ff51 	bl	4020ba <LCD_WritePixel>
  401218:	0630      	lsls	r0, r6, #24
  40121a:	0e00      	lsrs	r0, r0, #24
  40121c:	2802      	cmp	r0, #2
  40121e:	d003      	beq.n	401228 <??DisplayFreescaleLogo_1>
  401220:	2804      	cmp	r0, #4
  401222:	d004      	beq.n	40122e <??DisplayFreescaleLogo_2>
  401224:	2806      	cmp	r0, #6
  401226:	d105      	bne.n	401234 <??DisplayFreescaleLogo_3>

00401228 <??DisplayFreescaleLogo_1>:
  401228:	003c      	lsls	r4, r7, #0
  40122a:	1fad      	subs	r5, r5, #6
  40122c:	e004      	b.n	401238 <??DisplayFreescaleLogo_4>

0040122e <??DisplayFreescaleLogo_2>:
  40122e:	1ce4      	adds	r4, r4, #3
  401230:	3d09      	subs	r5, #9
  401232:	e001      	b.n	401238 <??DisplayFreescaleLogo_4>

00401234 <??DisplayFreescaleLogo_3>:
  401234:	1ce4      	adds	r4, r4, #3
  401236:	1d2d      	adds	r5, r5, #4

00401238 <??DisplayFreescaleLogo_4>:
  401238:	1c76      	adds	r6, r6, #1
  40123a:	0630      	lsls	r0, r6, #24
  40123c:	0e00      	lsrs	r0, r0, #24
  40123e:	2808      	cmp	r0, #8
  401240:	d200      	bcs.n	401244 <??DisplayFreescaleLogo_4+0xc>
  401242:	e72c      	b.n	40109e <??DisplayFreescaleLogo_0>
  401244:	2001      	movs	r0, #1
  401246:	f000 ff1d 	bl	402084 <LCD_SetFont>
  40124a:	3c14      	subs	r4, #20
  40124c:	0027      	lsls	r7, r4, #0
  40124e:	350f      	adds	r5, #15
  401250:	466e      	mov	r6, sp
  401252:	2409      	movs	r4, #9

00401254 <??DisplayFreescaleLogo_5>:
  401254:	063a      	lsls	r2, r7, #24
  401256:	0e12      	lsrs	r2, r2, #24
  401258:	0629      	lsls	r1, r5, #24
  40125a:	0e09      	lsrs	r1, r1, #24
  40125c:	7830      	ldrb	r0, [r6, #0]
  40125e:	f000 ffc1 	bl	4021e4 <LCD_WriteCharacter>
  401262:	1dad      	adds	r5, r5, #6
  401264:	1c76      	adds	r6, r6, #1
  401266:	1e64      	subs	r4, r4, #1
  401268:	d1f4      	bne.n	401254 <??DisplayFreescaleLogo_5>
  40126a:	2000      	movs	r0, #0
  40126c:	f000 ff0a 	bl	402084 <LCD_SetFont>

00401270 <?Subroutine1>:
  401270:	b003      	add	sp, #12
  401272:	46c0      	nop			(mov r8, r8)

00401274 <??Subroutine5_0>:
  401274:	9804      	ldr	r0, [sp, #16]
  401276:	bcf0      	pop	{r4, r5, r6, r7}
  401278:	b001      	add	sp, #4
  40127a:	4700      	bx	r0

0040127c <??Subroutine5_1>:
  40127c:	00403f24 	.word	0x00403f24

00401280 <ClearFreescaleLogo>:
  401280:	b5f8      	push	{r3, r4, r5, r6, r7, lr}
  401282:	0005      	lsls	r5, r0, #0
  401284:	000c      	lsls	r4, r1, #0
  401286:	2600      	movs	r6, #0

00401288 <??ClearFreescaleLogo_0>:
  401288:	2200      	movs	r2, #0
  40128a:	0621      	lsls	r1, r4, #24
  40128c:	0e09      	lsrs	r1, r1, #24
  40128e:	0628      	lsls	r0, r5, #24
  401290:	0e00      	lsrs	r0, r0, #24
  401292:	f000 ff12 	bl	4020ba <LCD_WritePixel>
  401296:	1c67      	adds	r7, r4, #1
  401298:	2200      	movs	r2, #0
  40129a:	0639      	lsls	r1, r7, #24
  40129c:	0e09      	lsrs	r1, r1, #24
  40129e:	0628      	lsls	r0, r5, #24
  4012a0:	0e00      	lsrs	r0, r0, #24
  4012a2:	f000 ff0a 	bl	4020ba <LCD_WritePixel>
  4012a6:	2200      	movs	r2, #0
  4012a8:	0639      	lsls	r1, r7, #24
  4012aa:	0e09      	lsrs	r1, r1, #24
  4012ac:	1c68      	adds	r0, r5, #1
  4012ae:	0600      	lsls	r0, r0, #24
  4012b0:	0e00      	lsrs	r0, r0, #24
  4012b2:	f000 ff02 	bl	4020ba <LCD_WritePixel>
  4012b6:	2200      	movs	r2, #0
  4012b8:	0639      	lsls	r1, r7, #24
  4012ba:	0e09      	lsrs	r1, r1, #24
  4012bc:	1e68      	subs	r0, r5, #1
  4012be:	0600      	lsls	r0, r0, #24
  4012c0:	0e00      	lsrs	r0, r0, #24
  4012c2:	f000 fefa 	bl	4020ba <LCD_WritePixel>
  4012c6:	1ca7      	adds	r7, r4, #2
  4012c8:	2200      	movs	r2, #0
  4012ca:	0639      	lsls	r1, r7, #24
  4012cc:	0e09      	lsrs	r1, r1, #24
  4012ce:	1ea8      	subs	r0, r5, #2
  4012d0:	0600      	lsls	r0, r0, #24
  4012d2:	0e00      	lsrs	r0, r0, #24
  4012d4:	f000 fef1 	bl	4020ba <LCD_WritePixel>
  4012d8:	2200      	movs	r2, #0
  4012da:	0639      	lsls	r1, r7, #24
  4012dc:	0e09      	lsrs	r1, r1, #24
  4012de:	1e68      	subs	r0, r5, #1
  4012e0:	0600      	lsls	r0, r0, #24
  4012e2:	0e00      	lsrs	r0, r0, #24
  4012e4:	f000 fee9 	bl	4020ba <LCD_WritePixel>
  4012e8:	2200      	movs	r2, #0
  4012ea:	0639      	lsls	r1, r7, #24
  4012ec:	0e09      	lsrs	r1, r1, #24
  4012ee:	0628      	lsls	r0, r5, #24
  4012f0:	0e00      	lsrs	r0, r0, #24
  4012f2:	f000 fee2 	bl	4020ba <LCD_WritePixel>
  4012f6:	2200      	movs	r2, #0
  4012f8:	0639      	lsls	r1, r7, #24
  4012fa:	0e09      	lsrs	r1, r1, #24
  4012fc:	1c68      	adds	r0, r5, #1
  4012fe:	0600      	lsls	r0, r0, #24
  401300:	0e00      	lsrs	r0, r0, #24
  401302:	f000 feda 	bl	4020ba <LCD_WritePixel>
  401306:	2200      	movs	r2, #0
  401308:	0639      	lsls	r1, r7, #24
  40130a:	0e09      	lsrs	r1, r1, #24
  40130c:	1ca8      	adds	r0, r5, #2
  40130e:	0600      	lsls	r0, r0, #24
  401310:	0e00      	lsrs	r0, r0, #24
  401312:	f000 fed2 	bl	4020ba <LCD_WritePixel>
  401316:	2200      	movs	r2, #0
  401318:	1ce1      	adds	r1, r4, #3
  40131a:	0609      	lsls	r1, r1, #24
  40131c:	0e09      	lsrs	r1, r1, #24
  40131e:	1ee8      	subs	r0, r5, #3
  401320:	0600      	lsls	r0, r0, #24
  401322:	0e00      	lsrs	r0, r0, #24
  401324:	f000 fec9 	bl	4020ba <LCD_WritePixel>
  401328:	2200      	movs	r2, #0
  40132a:	1ce1      	adds	r1, r4, #3
  40132c:	0609      	lsls	r1, r1, #24
  40132e:	0e09      	lsrs	r1, r1, #24
  401330:	1ea8      	subs	r0, r5, #2
  401332:	0600      	lsls	r0, r0, #24
  401334:	0e00      	lsrs	r0, r0, #24
  401336:	f000 fec0 	bl	4020ba <LCD_WritePixel>
  40133a:	2200      	movs	r2, #0
  40133c:	1ce1      	adds	r1, r4, #3
  40133e:	0609      	lsls	r1, r1, #24
  401340:	0e09      	lsrs	r1, r1, #24
  401342:	1e68      	subs	r0, r5, #1
  401344:	0600      	lsls	r0, r0, #24
  401346:	0e00      	lsrs	r0, r0, #24
  401348:	f000 feb7 	bl	4020ba <LCD_WritePixel>
  40134c:	2200      	movs	r2, #0
  40134e:	1ce1      	adds	r1, r4, #3
  401350:	0609      	lsls	r1, r1, #24
  401352:	0e09      	lsrs	r1, r1, #24
  401354:	0628      	lsls	r0, r5, #24
  401356:	0e00      	lsrs	r0, r0, #24
  401358:	f000 feaf 	bl	4020ba <LCD_WritePixel>
  40135c:	2200      	movs	r2, #0
  40135e:	1ce1      	adds	r1, r4, #3
  401360:	0609      	lsls	r1, r1, #24
  401362:	0e09      	lsrs	r1, r1, #24
  401364:	1c68      	adds	r0, r5, #1
  401366:	0600      	lsls	r0, r0, #24
  401368:	0e00      	lsrs	r0, r0, #24
  40136a:	f000 fea6 	bl	4020ba <LCD_WritePixel>
  40136e:	1d27      	adds	r7, r4, #4
  401370:	2200      	movs	r2, #0
  401372:	0639      	lsls	r1, r7, #24
  401374:	0e09      	lsrs	r1, r1, #24
  401376:	1f28      	subs	r0, r5, #4
  401378:	0600      	lsls	r0, r0, #24
  40137a:	0e00      	lsrs	r0, r0, #24
  40137c:	f000 fe9d 	bl	4020ba <LCD_WritePixel>
  401380:	2200      	movs	r2, #0
  401382:	0639      	lsls	r1, r7, #24
  401384:	0e09      	lsrs	r1, r1, #24
  401386:	1ee8      	subs	r0, r5, #3
  401388:	0600      	lsls	r0, r0, #24
  40138a:	0e00      	lsrs	r0, r0, #24
  40138c:	f000 fe95 	bl	4020ba <LCD_WritePixel>
  401390:	2200      	movs	r2, #0
  401392:	0639      	lsls	r1, r7, #24
  401394:	0e09      	lsrs	r1, r1, #24
  401396:	1ea8      	subs	r0, r5, #2
  401398:	0600      	lsls	r0, r0, #24
  40139a:	0e00      	lsrs	r0, r0, #24
  40139c:	f000 fe8d 	bl	4020ba <LCD_WritePixel>
  4013a0:	2200      	movs	r2, #0
  4013a2:	0639      	lsls	r1, r7, #24
  4013a4:	0e09      	lsrs	r1, r1, #24
  4013a6:	1e68      	subs	r0, r5, #1
  4013a8:	0600      	lsls	r0, r0, #24
  4013aa:	0e00      	lsrs	r0, r0, #24
  4013ac:	f000 fe85 	bl	4020ba <LCD_WritePixel>
  4013b0:	2200      	movs	r2, #0
  4013b2:	0639      	lsls	r1, r7, #24
  4013b4:	0e09      	lsrs	r1, r1, #24
  4013b6:	0628      	lsls	r0, r5, #24
  4013b8:	0e00      	lsrs	r0, r0, #24
  4013ba:	f000 fe7e 	bl	4020ba <LCD_WritePixel>
  4013be:	1d67      	adds	r7, r4, #5
  4013c0:	2200      	movs	r2, #0
  4013c2:	0639      	lsls	r1, r7, #24
  4013c4:	0e09      	lsrs	r1, r1, #24
  4013c6:	1ee8      	subs	r0, r5, #3
  4013c8:	0600      	lsls	r0, r0, #24
  4013ca:	0e00      	lsrs	r0, r0, #24
  4013cc:	f000 fe75 	bl	4020ba <LCD_WritePixel>
  4013d0:	2200      	movs	r2, #0
  4013d2:	0639      	lsls	r1, r7, #24
  4013d4:	0e09      	lsrs	r1, r1, #24
  4013d6:	1ea8      	subs	r0, r5, #2
  4013d8:	0600      	lsls	r0, r0, #24
  4013da:	0e00      	lsrs	r0, r0, #24
  4013dc:	f000 fe6d 	bl	4020ba <LCD_WritePixel>
  4013e0:	2200      	movs	r2, #0
  4013e2:	0639      	lsls	r1, r7, #24
  4013e4:	0e09      	lsrs	r1, r1, #24
  4013e6:	1e68      	subs	r0, r5, #1
  4013e8:	0600      	lsls	r0, r0, #24
  4013ea:	0e00      	lsrs	r0, r0, #24
  4013ec:	f000 fe65 	bl	4020ba <LCD_WritePixel>
  4013f0:	1da7      	adds	r7, r4, #6
  4013f2:	2200      	movs	r2, #0
  4013f4:	0639      	lsls	r1, r7, #24
  4013f6:	0e09      	lsrs	r1, r1, #24
  4013f8:	1ea8      	subs	r0, r5, #2
  4013fa:	0600      	lsls	r0, r0, #24
  4013fc:	0e00      	lsrs	r0, r0, #24
  4013fe:	f000 fe5c 	bl	4020ba <LCD_WritePixel>
  401402:	0630      	lsls	r0, r6, #24
  401404:	0e00      	lsrs	r0, r0, #24
  401406:	2802      	cmp	r0, #2
  401408:	d003      	beq.n	401412 <??ClearFreescaleLogo_1>
  40140a:	2804      	cmp	r0, #4
  40140c:	d004      	beq.n	401418 <??ClearFreescaleLogo_2>
  40140e:	2806      	cmp	r0, #6
  401410:	d105      	bne.n	40141e <??ClearFreescaleLogo_3>

00401412 <??ClearFreescaleLogo_1>:
  401412:	003c      	lsls	r4, r7, #0
  401414:	1fad      	subs	r5, r5, #6
  401416:	e004      	b.n	401422 <??ClearFreescaleLogo_4>

00401418 <??ClearFreescaleLogo_2>:
  401418:	1ce4      	adds	r4, r4, #3
  40141a:	3d09      	subs	r5, #9
  40141c:	e001      	b.n	401422 <??ClearFreescaleLogo_4>

0040141e <??ClearFreescaleLogo_3>:
  40141e:	1ce4      	adds	r4, r4, #3
  401420:	1d2d      	adds	r5, r5, #4

00401422 <??ClearFreescaleLogo_4>:
  401422:	1c76      	adds	r6, r6, #1
  401424:	0630      	lsls	r0, r6, #24
  401426:	0e00      	lsrs	r0, r0, #24
  401428:	2808      	cmp	r0, #8
  40142a:	d200      	bcs.n	40142e <??ClearFreescaleLogo_4+0xc>
  40142c:	e72c      	b.n	401288 <??ClearFreescaleLogo_0>
  40142e:	b001      	add	sp, #4
  401430:	e720      	b.n	401274 <??Subroutine5_0>
	...

00401434 <DisplaySensorValue>:
  401434:	b5f8      	push	{r3, r4, r5, r6, r7, lr}
  401436:	0007      	lsls	r7, r0, #0
  401438:	4d98      	ldr	r5, [pc, #608]	(40169c <??DisplaySensorValue_0>)
  40143a:	0029      	lsls	r1, r5, #0
  40143c:	2000      	movs	r0, #0
  40143e:	f000 fbb9 	bl	401bb4 <LCD_WriteString_NormalFont>
  401442:	2400      	movs	r4, #0

00401444 <??DisplaySensorValue_1>:
  401444:	2201      	movs	r2, #1
  401446:	210a      	movs	r1, #10
  401448:	0620      	lsls	r0, r4, #24
  40144a:	0e00      	lsrs	r0, r0, #24
  40144c:	f000 fe35 	bl	4020ba <LCD_WritePixel>
  401450:	2201      	movs	r2, #1
  401452:	210b      	movs	r1, #11
  401454:	0620      	lsls	r0, r4, #24
  401456:	0e00      	lsrs	r0, r0, #24
  401458:	f000 fe2f 	bl	4020ba <LCD_WritePixel>
  40145c:	1c64      	adds	r4, r4, #1
  40145e:	0620      	lsls	r0, r4, #24
  401460:	0e00      	lsrs	r0, r0, #24
  401462:	2864      	cmp	r0, #100
  401464:	d3ee      	bcc.n	401444 <??DisplaySensorValue_1>
  401466:	4e8e      	ldr	r6, [pc, #568]	(4016a0 <??DisplaySensorValue_0+0x4>)
  401468:	2301      	movs	r3, #1
  40146a:	2207      	movs	r2, #7
  40146c:	7d71      	ldrb	r1, [r6, #21]
  40146e:	310b      	adds	r1, #11
  401470:	0409      	lsls	r1, r1, #16
  401472:	0c09      	lsrs	r1, r1, #16
  401474:	a08b      	add	r0, pc, #556	(adr r0, 4016a4 <??DisplaySensorValue_0+0x8>)
  401476:	f000 fbd5 	bl	401c24 <LCD_WriteStringValue>
  40147a:	1f7f      	subs	r7, r7, #5
  40147c:	d00a      	beq.n	401494 <??DisplaySensorValue_2>
  40147e:	1ebf      	subs	r7, r7, #2
  401480:	d011      	beq.n	4014a6 <??DisplaySensorValue_3>
  401482:	1ebf      	subs	r7, r7, #2
  401484:	d05e      	beq.n	401544 <??DisplaySensorValue_4>
  401486:	1ebf      	subs	r7, r7, #2
  401488:	d100      	bne.n	40148c <??DisplaySensorValue_1+0x48>
  40148a:	e0a2      	b.n	4015d2 <??DisplaySensorValue_5>
  40148c:	1ebf      	subs	r7, r7, #2
  40148e:	d100      	bne.n	401492 <??DisplaySensorValue_1+0x4e>
  401490:	e0f3      	b.n	40167a <??DisplaySensorValue_6>
  401492:	e055      	b.n	401540 <??DisplaySensorValue_7>

00401494 <??DisplaySensorValue_2>:
  401494:	3514      	adds	r5, #20
  401496:	0029      	lsls	r1, r5, #0
  401498:	2002      	movs	r0, #2
  40149a:	f000 fb8b 	bl	401bb4 <LCD_WriteString_NormalFont>
  40149e:	2004      	movs	r0, #4
  4014a0:	f000 f904 	bl	4016ac <DisplayWindDir>
  4014a4:	e04c      	b.n	401540 <??DisplaySensorValue_7>

004014a6 <??DisplaySensorValue_3>:
  4014a6:	0029      	lsls	r1, r5, #0
  4014a8:	3128      	adds	r1, #40
  4014aa:	2002      	movs	r0, #2
  4014ac:	f000 fb82 	bl	401bb4 <LCD_WriteString_NormalFont>
  4014b0:	7cf0      	ldrb	r0, [r6, #19]
  4014b2:	2801      	cmp	r0, #1
  4014b4:	d10c      	bne.n	4014d0 <??DisplaySensorValue_8>
  4014b6:	8d31      	ldrh	r1, [r6, #40]
  4014b8:	0a08      	lsrs	r0, r1, #8
  4014ba:	2864      	cmp	r0, #100
  4014bc:	d204      	bcs.n	4014c8 <??DisplaySensorValue_9>
  4014be:	2301      	movs	r3, #1
  4014c0:	2204      	movs	r2, #4
  4014c2:	353c      	adds	r5, #60
  4014c4:	0028      	lsls	r0, r5, #0
  4014c6:	e00f      	b.n	4014e8 <??DisplaySensorValue_10>

004014c8 <??DisplaySensorValue_9>:
  4014c8:	2301      	movs	r3, #1
  4014ca:	2204      	movs	r2, #4
  4014cc:	a076      	add	r0, pc, #472	(adr r0, 4016a8 <??DisplaySensorValue_0+0xc>)
  4014ce:	e00b      	b.n	4014e8 <??DisplaySensorValue_10>

004014d0 <??DisplaySensorValue_8>:
  4014d0:	8c71      	ldrh	r1, [r6, #34]
  4014d2:	0a08      	lsrs	r0, r1, #8
  4014d4:	2864      	cmp	r0, #100
  4014d6:	d204      	bcs.n	4014e2 <??DisplaySensorValue_11>
  4014d8:	2301      	movs	r3, #1
  4014da:	2204      	movs	r2, #4
  4014dc:	353c      	adds	r5, #60
  4014de:	0028      	lsls	r0, r5, #0
  4014e0:	e002      	b.n	4014e8 <??DisplaySensorValue_10>

004014e2 <??DisplaySensorValue_11>:
  4014e2:	2301      	movs	r3, #1
  4014e4:	2204      	movs	r2, #4
  4014e6:	a070      	add	r0, pc, #448	(adr r0, 4016a8 <??DisplaySensorValue_0+0xc>)

004014e8 <??DisplaySensorValue_10>:
  4014e8:	f000 fc68 	bl	401dbc <LCD_WriteStringDecValue>
  4014ec:	7cf0      	ldrb	r0, [r6, #19]
  4014ee:	2801      	cmp	r0, #1
  4014f0:	d112      	bne.n	401518 <??DisplaySensorValue_12>
  4014f2:	2220      	movs	r2, #32
  4014f4:	2139      	movs	r1, #57
  4014f6:	204d      	movs	r0, #77
  4014f8:	f000 fe74 	bl	4021e4 <LCD_WriteCharacter>
  4014fc:	2220      	movs	r2, #32
  4014fe:	213f      	movs	r1, #63
  401500:	202f      	movs	r0, #47
  401502:	f000 fe6f 	bl	4021e4 <LCD_WriteCharacter>
  401506:	2220      	movs	r2, #32
  401508:	2145      	movs	r1, #69
  40150a:	2068      	movs	r0, #104
  40150c:	f000 fe6a 	bl	4021e4 <LCD_WriteCharacter>
  401510:	2220      	movs	r2, #32
  401512:	214b      	movs	r1, #75
  401514:	2020      	movs	r0, #32
  401516:	e011      	b.n	40153c <??DisplaySensorValue_13>

00401518 <??DisplaySensorValue_12>:
  401518:	2220      	movs	r2, #32
  40151a:	2139      	movs	r1, #57
  40151c:	204b      	movs	r0, #75
  40151e:	f000 fe61 	bl	4021e4 <LCD_WriteCharacter>
  401522:	2220      	movs	r2, #32
  401524:	213f      	movs	r1, #63
  401526:	206d      	movs	r0, #109
  401528:	f000 fe5c 	bl	4021e4 <LCD_WriteCharacter>
  40152c:	2220      	movs	r2, #32
  40152e:	2145      	movs	r1, #69
  401530:	202f      	movs	r0, #47
  401532:	f000 fe57 	bl	4021e4 <LCD_WriteCharacter>
  401536:	2220      	movs	r2, #32
  401538:	214b      	movs	r1, #75
  40153a:	2068      	movs	r0, #104

0040153c <??DisplaySensorValue_13>:
  40153c:	f000 fe52 	bl	4021e4 <LCD_WriteCharacter>

00401540 <??DisplaySensorValue_7>:
  401540:	b001      	add	sp, #4
  401542:	e697      	b.n	401274 <??Subroutine5_0>

00401544 <??DisplaySensorValue_4>:
  401544:	0029      	lsls	r1, r5, #0
  401546:	3144      	adds	r1, #68
  401548:	2002      	movs	r0, #2
  40154a:	f000 fb33 	bl	401bb4 <LCD_WriteString_NormalFont>
  40154e:	7cf0      	ldrb	r0, [r6, #19]
  401550:	2801      	cmp	r0, #1
  401552:	d10c      	bne.n	40156e <??DisplaySensorValue_14>
  401554:	8cf1      	ldrh	r1, [r6, #38]
  401556:	0a08      	lsrs	r0, r1, #8
  401558:	2864      	cmp	r0, #100
  40155a:	d204      	bcs.n	401566 <??DisplaySensorValue_15>
  40155c:	2301      	movs	r3, #1
  40155e:	2204      	movs	r2, #4
  401560:	353c      	adds	r5, #60
  401562:	0028      	lsls	r0, r5, #0
  401564:	e00f      	b.n	401586 <??DisplaySensorValue_16>

00401566 <??DisplaySensorValue_15>:
  401566:	2301      	movs	r3, #1
  401568:	2204      	movs	r2, #4
  40156a:	a04f      	add	r0, pc, #316	(adr r0, 4016a8 <??DisplaySensorValue_0+0xc>)
  40156c:	e00b      	b.n	401586 <??DisplaySensorValue_16>

0040156e <??DisplaySensorValue_14>:
  40156e:	8c31      	ldrh	r1, [r6, #32]
  401570:	0a08      	lsrs	r0, r1, #8
  401572:	2864      	cmp	r0, #100
  401574:	d204      	bcs.n	401580 <??DisplaySensorValue_17>
  401576:	2301      	movs	r3, #1
  401578:	2204      	movs	r2, #4
  40157a:	353c      	adds	r5, #60
  40157c:	0028      	lsls	r0, r5, #0
  40157e:	e002      	b.n	401586 <??DisplaySensorValue_16>

00401580 <??DisplaySensorValue_17>:
  401580:	2301      	movs	r3, #1
  401582:	2204      	movs	r2, #4
  401584:	a048      	add	r0, pc, #288	(adr r0, 4016a8 <??DisplaySensorValue_0+0xc>)

00401586 <??DisplaySensorValue_16>:
  401586:	f000 fc19 	bl	401dbc <LCD_WriteStringDecValue>
  40158a:	7cf0      	ldrb	r0, [r6, #19]
  40158c:	2801      	cmp	r0, #1
  40158e:	d10d      	bne.n	4015ac <??DisplaySensorValue_18>
  401590:	2220      	movs	r2, #32
  401592:	2138      	movs	r1, #56
  401594:	2050      	movs	r0, #80
  401596:	f000 fe25 	bl	4021e4 <LCD_WriteCharacter>
  40159a:	2220      	movs	r2, #32
  40159c:	213e      	movs	r1, #62
  40159e:	2053      	movs	r0, #83
  4015a0:	f000 fe20 	bl	4021e4 <LCD_WriteCharacter>
  4015a4:	2220      	movs	r2, #32
  4015a6:	2144      	movs	r1, #68
  4015a8:	2049      	movs	r0, #73
  4015aa:	e7c7      	b.n	40153c <??DisplaySensorValue_13>

004015ac <??DisplaySensorValue_18>:
  4015ac:	2220      	movs	r2, #32
  4015ae:	2138      	movs	r1, #56
  4015b0:	206d      	movs	r0, #109
  4015b2:	f000 fe17 	bl	4021e4 <LCD_WriteCharacter>
  4015b6:	2220      	movs	r2, #32
  4015b8:	213e      	movs	r1, #62
  4015ba:	2062      	movs	r0, #98
  4015bc:	f000 fe12 	bl	4021e4 <LCD_WriteCharacter>
  4015c0:	2220      	movs	r2, #32
  4015c2:	2144      	movs	r1, #68
  4015c4:	2061      	movs	r0, #97
  4015c6:	f000 fe0d 	bl	4021e4 <LCD_WriteCharacter>
  4015ca:	2220      	movs	r2, #32
  4015cc:	214a      	movs	r1, #74
  4015ce:	2072      	movs	r0, #114
  4015d0:	e7b4      	b.n	40153c <??DisplaySensorValue_13>

004015d2 <??DisplaySensorValue_5>:
  4015d2:	0029      	lsls	r1, r5, #0
  4015d4:	3154      	adds	r1, #84
  4015d6:	2002      	movs	r0, #2
  4015d8:	f000 faec 	bl	401bb4 <LCD_WriteString_NormalFont>
  4015dc:	7cf0      	ldrb	r0, [r6, #19]
  4015de:	2801      	cmp	r0, #1
  4015e0:	d10c      	bne.n	4015fc <??DisplaySensorValue_19>
  4015e2:	8cb1      	ldrh	r1, [r6, #36]
  4015e4:	0a08      	lsrs	r0, r1, #8
  4015e6:	2864      	cmp	r0, #100
  4015e8:	d204      	bcs.n	4015f4 <??DisplaySensorValue_20>
  4015ea:	2301      	movs	r3, #1
  4015ec:	2204      	movs	r2, #4
  4015ee:	353c      	adds	r5, #60
  4015f0:	0028      	lsls	r0, r5, #0
  4015f2:	e00f      	b.n	401614 <??DisplaySensorValue_21>

004015f4 <??DisplaySensorValue_20>:
  4015f4:	2301      	movs	r3, #1
  4015f6:	2204      	movs	r2, #4
  4015f8:	a02b      	add	r0, pc, #172	(adr r0, 4016a8 <??DisplaySensorValue_0+0xc>)
  4015fa:	e00b      	b.n	401614 <??DisplaySensorValue_21>

004015fc <??DisplaySensorValue_19>:
  4015fc:	8bf1      	ldrh	r1, [r6, #30]
  4015fe:	0a08      	lsrs	r0, r1, #8
  401600:	2864      	cmp	r0, #100
  401602:	d204      	bcs.n	40160e <??DisplaySensorValue_22>
  401604:	2301      	movs	r3, #1
  401606:	2204      	movs	r2, #4
  401608:	353c      	adds	r5, #60
  40160a:	0028      	lsls	r0, r5, #0
  40160c:	e002      	b.n	401614 <??DisplaySensorValue_21>

0040160e <??DisplaySensorValue_22>:
  40160e:	2301      	movs	r3, #1
  401610:	2204      	movs	r2, #4
  401612:	a025      	add	r0, pc, #148	(adr r0, 4016a8 <??DisplaySensorValue_0+0xc>)

00401614 <??DisplaySensorValue_21>:
  401614:	f000 fbd2 	bl	401dbc <LCD_WriteStringDecValue>
  401618:	7df0      	ldrb	r0, [r6, #23]
  40161a:	2800      	cmp	r0, #0
  40161c:	d004      	beq.n	401628 <??DisplaySensorValue_23>
  40161e:	2220      	movs	r2, #32
  401620:	210f      	movs	r1, #15
  401622:	202d      	movs	r0, #45
  401624:	f000 fdde 	bl	4021e4 <LCD_WriteCharacter>

00401628 <??DisplaySensorValue_23>:
  401628:	2420      	movs	r4, #32

0040162a <??DisplaySensorValue_24>:
  40162a:	2201      	movs	r2, #1
  40162c:	0621      	lsls	r1, r4, #24
  40162e:	0e09      	lsrs	r1, r1, #24
  401630:	203a      	movs	r0, #58
  401632:	f000 fd42 	bl	4020ba <LCD_WritePixel>
  401636:	0620      	lsls	r0, r4, #24
  401638:	0e00      	lsrs	r0, r0, #24
  40163a:	2821      	cmp	r0, #33
  40163c:	d101      	bne.n	401642 <??DisplaySensorValue_25>
  40163e:	2200      	movs	r2, #0
  401640:	e000      	b.n	401644 <??DisplaySensorValue_26>

00401642 <??DisplaySensorValue_25>:
  401642:	2201      	movs	r2, #1

00401644 <??DisplaySensorValue_26>:
  401644:	0621      	lsls	r1, r4, #24
  401646:	0e09      	lsrs	r1, r1, #24
  401648:	203b      	movs	r0, #59
  40164a:	f000 fd36 	bl	4020ba <LCD_WritePixel>
  40164e:	2201      	movs	r2, #1
  401650:	0621      	lsls	r1, r4, #24
  401652:	0e09      	lsrs	r1, r1, #24
  401654:	203c      	movs	r0, #60
  401656:	f000 fd30 	bl	4020ba <LCD_WritePixel>
  40165a:	1c64      	adds	r4, r4, #1
  40165c:	0620      	lsls	r0, r4, #24
  40165e:	0e00      	lsrs	r0, r0, #24
  401660:	2823      	cmp	r0, #35
  401662:	d3e2      	bcc.n	40162a <??DisplaySensorValue_24>
  401664:	7cf0      	ldrb	r0, [r6, #19]
  401666:	2801      	cmp	r0, #1
  401668:	d103      	bne.n	401672 <??DisplaySensorValue_27>
  40166a:	2220      	movs	r2, #32
  40166c:	2140      	movs	r1, #64
  40166e:	2046      	movs	r0, #70
  401670:	e764      	b.n	40153c <??DisplaySensorValue_13>

00401672 <??DisplaySensorValue_27>:
  401672:	2220      	movs	r2, #32
  401674:	2140      	movs	r1, #64
  401676:	2043      	movs	r0, #67
  401678:	e760      	b.n	40153c <??DisplaySensorValue_13>

0040167a <??DisplaySensorValue_6>:
  40167a:	0029      	lsls	r1, r5, #0
  40167c:	3168      	adds	r1, #104
  40167e:	2002      	movs	r0, #2
  401680:	f000 fa98 	bl	401bb4 <LCD_WriteString_NormalFont>
  401684:	2301      	movs	r3, #1
  401686:	2204      	movs	r2, #4
  401688:	8d71      	ldrh	r1, [r6, #42]
  40168a:	357c      	adds	r5, #124
  40168c:	0028      	lsls	r0, r5, #0
  40168e:	f000 fb95 	bl	401dbc <LCD_WriteStringDecValue>
  401692:	2220      	movs	r2, #32
  401694:	213f      	movs	r1, #63
  401696:	2056      	movs	r0, #86
  401698:	e750      	b.n	40153c <??DisplaySensorValue_13>
  40169a:	46c0      	nop			(mov r8, r8)

0040169c <??DisplaySensorValue_0>:
  40169c:	00403aa4 	.word	0x00403aa4
  4016a0:	00405244 	.word	0x00405244
  4016a4:	003a4843 	.word	0x003a4843
  4016a8:	00202020 	.word	0x00202020

004016ac <DisplayWindDir>:
  4016ac:	b5f8      	push	{r3, r4, r5, r6, r7, lr}
  4016ae:	0004      	lsls	r4, r0, #0
  4016b0:	f000 fe32 	bl	402318 <LCD_ClearLine>
  4016b4:	4d42      	ldr	r5, [pc, #264]	(4017c0 <??DisplayWindDir_0>)
  4016b6:	8da9      	ldrh	r1, [r5, #44]
  4016b8:	2917      	cmp	r1, #23
  4016ba:	d303      	bcc.n	4016c4 <??DisplayWindDir_1>
  4016bc:	20a9      	movs	r0, #169
  4016be:	0040      	lsls	r0, r0, #1
  4016c0:	4281      	cmp	r1, r0
  4016c2:	d30a      	bcc.n	4016da <??DisplayWindDir_2>

004016c4 <??DisplayWindDir_1>:
  4016c4:	483f      	ldr	r0, [pc, #252]	(4017c4 <??DisplayWindDir_0+0x4>)
  4016c6:	2964      	cmp	r1, #100
  4016c8:	d302      	bcc.n	4016d0 <??DisplayWindDir_3>
  4016ca:	2301      	movs	r3, #1
  4016cc:	0022      	lsls	r2, r4, #0
  4016ce:	e002      	b.n	4016d6 <??DisplayWindDir_4>

004016d0 <??DisplayWindDir_3>:
  4016d0:	2301      	movs	r3, #1
  4016d2:	0022      	lsls	r2, r4, #0
  4016d4:	3008      	adds	r0, #8

004016d6 <??DisplayWindDir_4>:
  4016d6:	f000 faa5 	bl	401c24 <LCD_WriteStringValue>

004016da <??DisplayWindDir_2>:
  4016da:	8da9      	ldrh	r1, [r5, #44]
  4016dc:	2944      	cmp	r1, #68
  4016de:	d206      	bcs.n	4016ee <??DisplayWindDir_5>
  4016e0:	2917      	cmp	r1, #23
  4016e2:	d34b      	bcc.n	40177c <??DisplayWindDir_6>
  4016e4:	2301      	movs	r3, #1
  4016e6:	0022      	lsls	r2, r4, #0
  4016e8:	4837      	ldr	r0, [pc, #220]	(4017c8 <??DisplayWindDir_0+0x8>)
  4016ea:	f000 fa9b 	bl	401c24 <LCD_WriteStringValue>

004016ee <??DisplayWindDir_5>:
  4016ee:	8da9      	ldrh	r1, [r5, #44]
  4016f0:	2971      	cmp	r1, #113
  4016f2:	d20d      	bcs.n	401710 <??DisplayWindDir_7>
  4016f4:	2944      	cmp	r1, #68
  4016f6:	d341      	bcc.n	40177c <??DisplayWindDir_6>
  4016f8:	4832      	ldr	r0, [pc, #200]	(4017c4 <??DisplayWindDir_0+0x4>)
  4016fa:	2964      	cmp	r1, #100
  4016fc:	d303      	bcc.n	401706 <??DisplayWindDir_8>
  4016fe:	2301      	movs	r3, #1
  401700:	0022      	lsls	r2, r4, #0
  401702:	3020      	adds	r0, #32
  401704:	e002      	b.n	40170c <??DisplayWindDir_9>

00401706 <??DisplayWindDir_8>:
  401706:	2301      	movs	r3, #1
  401708:	0022      	lsls	r2, r4, #0
  40170a:	3028      	adds	r0, #40

0040170c <??DisplayWindDir_9>:
  40170c:	f000 fa8a 	bl	401c24 <LCD_WriteStringValue>

00401710 <??DisplayWindDir_7>:
  401710:	8da9      	ldrh	r1, [r5, #44]
  401712:	299e      	cmp	r1, #158
  401714:	d206      	bcs.n	401724 <??DisplayWindDir_10>
  401716:	2971      	cmp	r1, #113
  401718:	d330      	bcc.n	40177c <??DisplayWindDir_6>
  40171a:	2301      	movs	r3, #1
  40171c:	0022      	lsls	r2, r4, #0
  40171e:	482b      	ldr	r0, [pc, #172]	(4017cc <??DisplayWindDir_0+0xc>)
  401720:	f000 fa80 	bl	401c24 <LCD_WriteStringValue>

00401724 <??DisplayWindDir_10>:
  401724:	8da9      	ldrh	r1, [r5, #44]
  401726:	29cb      	cmp	r1, #203
  401728:	d206      	bcs.n	401738 <??DisplayWindDir_11>
  40172a:	299e      	cmp	r1, #158
  40172c:	d326      	bcc.n	40177c <??DisplayWindDir_6>
  40172e:	2301      	movs	r3, #1
  401730:	0022      	lsls	r2, r4, #0
  401732:	4827      	ldr	r0, [pc, #156]	(4017d0 <??DisplayWindDir_0+0x10>)
  401734:	f000 fa76 	bl	401c24 <LCD_WriteStringValue>

00401738 <??DisplayWindDir_11>:
  401738:	8da9      	ldrh	r1, [r5, #44]
  40173a:	29f8      	cmp	r1, #248
  40173c:	d206      	bcs.n	40174c <??DisplayWindDir_12>
  40173e:	29cb      	cmp	r1, #203
  401740:	d31c      	bcc.n	40177c <??DisplayWindDir_6>
  401742:	2301      	movs	r3, #1
  401744:	0022      	lsls	r2, r4, #0
  401746:	4823      	ldr	r0, [pc, #140]	(4017d4 <??DisplayWindDir_0+0x14>)
  401748:	f000 fa6c 	bl	401c24 <LCD_WriteStringValue>

0040174c <??DisplayWindDir_12>:
  40174c:	8da9      	ldrh	r1, [r5, #44]
  40174e:	26ff      	movs	r6, #255
  401750:	3626      	adds	r6, #38
  401752:	42b1      	cmp	r1, r6
  401754:	d206      	bcs.n	401764 <??DisplayWindDir_13>
  401756:	29f8      	cmp	r1, #248
  401758:	d310      	bcc.n	40177c <??DisplayWindDir_6>
  40175a:	2301      	movs	r3, #1
  40175c:	0022      	lsls	r2, r4, #0
  40175e:	481e      	ldr	r0, [pc, #120]	(4017d8 <??DisplayWindDir_0+0x18>)
  401760:	f000 fa60 	bl	401c24 <LCD_WriteStringValue>

00401764 <??DisplayWindDir_13>:
  401764:	8da9      	ldrh	r1, [r5, #44]
  401766:	20a9      	movs	r0, #169
  401768:	0040      	lsls	r0, r0, #1
  40176a:	4281      	cmp	r1, r0
  40176c:	d206      	bcs.n	40177c <??DisplayWindDir_6>
  40176e:	42b1      	cmp	r1, r6
  401770:	d304      	bcc.n	40177c <??DisplayWindDir_6>
  401772:	2301      	movs	r3, #1
  401774:	0022      	lsls	r2, r4, #0
  401776:	4819      	ldr	r0, [pc, #100]	(4017dc <??DisplayWindDir_0+0x1c>)
  401778:	f000 fa54 	bl	401c24 <LCD_WriteStringValue>

0040177c <??DisplayWindDir_6>:
  40177c:	00e7      	lsls	r7, r4, #3
  40177e:	063f      	lsls	r7, r7, #24
  401780:	0e3f      	lsrs	r7, r7, #24
  401782:	003c      	lsls	r4, r7, #0
  401784:	1c7e      	adds	r6, r7, #1
  401786:	1cff      	adds	r7, r7, #3
  401788:	e00c      	b.n	4017a4 <??DisplayWindDir_14>

0040178a <??DisplayWindDir_15>:
  40178a:	2201      	movs	r2, #1

0040178c <??DisplayWindDir_16>:
  40178c:	0021      	lsls	r1, r4, #0
  40178e:	203e      	movs	r0, #62
  401790:	f000 fc93 	bl	4020ba <LCD_WritePixel>
  401794:	2201      	movs	r2, #1
  401796:	0021      	lsls	r1, r4, #0
  401798:	203f      	movs	r0, #63
  40179a:	f000 fc8e 	bl	4020ba <LCD_WritePixel>
  40179e:	1c64      	adds	r4, r4, #1
  4017a0:	0624      	lsls	r4, r4, #24
  4017a2:	0e24      	lsrs	r4, r4, #24

004017a4 <??DisplayWindDir_14>:
  4017a4:	42bc      	cmp	r4, r7
  4017a6:	da08      	bge.n	4017ba <??DisplayWindDir_17>
  4017a8:	2201      	movs	r2, #1
  4017aa:	0021      	lsls	r1, r4, #0
  4017ac:	203d      	movs	r0, #61
  4017ae:	f000 fc84 	bl	4020ba <LCD_WritePixel>
  4017b2:	42b4      	cmp	r4, r6
  4017b4:	d1e9      	bne.n	40178a <??DisplayWindDir_15>
  4017b6:	2200      	movs	r2, #0
  4017b8:	e7e8      	b.n	40178c <??DisplayWindDir_16>

004017ba <??DisplayWindDir_17>:
  4017ba:	b001      	add	sp, #4
  4017bc:	e55a      	b.n	401274 <??Subroutine5_0>
  4017be:	46c0      	nop			(mov r8, r8)

004017c0 <??DisplayWindDir_0>:
  4017c0:	00405244 	.word	0x00405244
  4017c4:	00403ba8 	.word	0x00403ba8
  4017c8:	00403bbc 	.word	0x00403bbc
  4017cc:	00403bdc 	.word	0x00403bdc
  4017d0:	00403be4 	.word	0x00403be4
  4017d4:	00403bec 	.word	0x00403bec
  4017d8:	00403bf4 	.word	0x00403bf4
  4017dc:	00403bfc 	.word	0x00403bfc

004017e0 <NVMSetup>:
  4017e0:	b500      	push	{lr}
  4017e2:	b083      	sub	sp, #12
  4017e4:	4668      	mov	r0, sp
  4017e6:	2102      	movs	r1, #2
  4017e8:	7001      	strb	r1, [r0, #0]
  4017ea:	2101      	movs	r1, #1
  4017ec:	7101      	strb	r1, [r0, #4]
  4017ee:	f402 fa01 	bl	3bf4 <CRM_VRegCntl>
  4017f2:	200a      	movs	r0, #10
  4017f4:	f002 fac6 	bl	403d84 <DelayMs>
  4017f8:	4903      	ldr	r1, [pc, #12]	(401808 <??NVMSetup_0>)
  4017fa:	2000      	movs	r0, #0
  4017fc:	f405 fa5c 	bl	6cb8 <NVM_Detect>
  401800:	9803      	ldr	r0, [sp, #12]
  401802:	b004      	add	sp, #16
  401804:	4700      	bx	r0
  401806:	46c0      	nop			(mov r8, r8)

00401808 <??NVMSetup_0>:
  401808:	0040525c 	.word	0x0040525c

0040180c <LoadCurrentMeasurementSystem>:
  40180c:	b538      	push	{r3, r4, r5, lr}
  40180e:	4d10      	ldr	r5, [pc, #64]	(401850 <??DataTable4>)
  401810:	2480      	movs	r4, #128
  401812:	0264      	lsls	r4, r4, #9
  401814:	0022      	lsls	r2, r4, #0
  401816:	7e29      	ldrb	r1, [r5, #24]
  401818:	2000      	movs	r0, #0
  40181a:	f405 faf3 	bl	6e04 <NVM_Erase>
  40181e:	2301      	movs	r3, #1
  401820:	0022      	lsls	r2, r4, #0
  401822:	7e29      	ldrb	r1, [r5, #24]
  401824:	2000      	movs	r0, #0
  401826:	f405 fbf9 	bl	701c <NVM_BlankCheck>
  40182a:	2800      	cmp	r0, #0
  40182c:	d109      	bne.n	401842 <??LoadCurrentMeasurementSystem_0>
  40182e:	2001      	movs	r0, #1
  401830:	b501      	push	{r0, lr}
  401832:	0023      	lsls	r3, r4, #0
  401834:	002a      	lsls	r2, r5, #0
  401836:	3213      	adds	r2, #19
  401838:	7e29      	ldrb	r1, [r5, #24]
  40183a:	2000      	movs	r0, #0
  40183c:	f405 fb42 	bl	6ec4 <NVM_Write>
  401840:	b002      	add	sp, #8

00401842 <??LoadCurrentMeasurementSystem_0>:
  401842:	46c0      	nop			(mov r8, r8)

00401844 <?Subroutine3>:
  401844:	b001      	add	sp, #4
  401846:	9802      	ldr	r0, [sp, #8]
  401848:	bc30      	pop	{r4, r5}
  40184a:	b001      	add	sp, #4
  40184c:	4700      	bx	r0
	...

00401850 <??DataTable4>:
  401850:	00405244 	.word	0x00405244

00401854 <ReadCurrentMeasurementSystem>:
  401854:	b580      	push	{r7, lr}
  401856:	4806      	ldr	r0, [pc, #24]	(401870 <??ReadCurrentMeasurementSystem_0>)
  401858:	2101      	movs	r1, #1
  40185a:	b502      	push	{r1, lr}
  40185c:	040b      	lsls	r3, r1, #16
  40185e:	0002      	lsls	r2, r0, #0
  401860:	3213      	adds	r2, #19
  401862:	7e01      	ldrb	r1, [r0, #24]
  401864:	2000      	movs	r0, #0
  401866:	f405 fa7f 	bl	6d68 <NVM_Read>
  40186a:	b002      	add	sp, #8
  40186c:	f7ff faee 	bl	400e4c <??Subroutine4_0>

00401870 <??ReadCurrentMeasurementSystem_0>:
  401870:	00405244 	.word	0x00405244

00401874 <execute_uart_command>:
  401874:	b538      	push	{r3, r4, r5, lr}
  401876:	2801      	cmp	r0, #1
  401878:	d106      	bne.n	401888 <??execute_uart_command_0>
  40187a:	466c      	mov	r4, sp
  40187c:	20fd      	movs	r0, #253
  40187e:	7020      	strb	r0, [r4, #0]
  401880:	2001      	movs	r0, #1
  401882:	7060      	strb	r0, [r4, #1]
  401884:	2059      	movs	r0, #89
  401886:	e03f      	b.n	401908 <??execute_uart_command_1>

00401888 <??execute_uart_command_0>:
  401888:	2802      	cmp	r0, #2
  40188a:	d118      	bne.n	4018be <??execute_uart_command_2>
  40188c:	466c      	mov	r4, sp
  40188e:	20fd      	movs	r0, #253
  401890:	7020      	strb	r0, [r4, #0]
  401892:	2002      	movs	r0, #2
  401894:	7060      	strb	r0, [r4, #1]
  401896:	20ff      	movs	r0, #255
  401898:	70e0      	strb	r0, [r4, #3]
  40189a:	2910      	cmp	r1, #16
  40189c:	d302      	bcc.n	4018a4 <??execute_uart_command_3>

0040189e <??execute_uart_command_4>:
  40189e:	204e      	movs	r0, #78
  4018a0:	70a0      	strb	r0, [r4, #2]
  4018a2:	e034      	b.n	40190e <??execute_uart_command_5>

004018a4 <??execute_uart_command_3>:
  4018a4:	4d20      	ldr	r5, [pc, #128]	(401928 <??execute_uart_command_6>)
  4018a6:	7569      	strb	r1, [r5, #21]
  4018a8:	0008      	lsls	r0, r1, #0
  4018aa:	f002 f8c1 	bl	403a30 <MLMESetChannelRequest>
  4018ae:	2059      	movs	r0, #89
  4018b0:	70a0      	strb	r0, [r4, #2]
  4018b2:	f000 f950 	bl	401b56 <LCD_ClearDisplay>
  4018b6:	7d28      	ldrb	r0, [r5, #20]
  4018b8:	f7ff fdbc 	bl	401434 <DisplaySensorValue>
  4018bc:	e027      	b.n	40190e <??execute_uart_command_5>

004018be <??execute_uart_command_2>:
  4018be:	2803      	cmp	r0, #3
  4018c0:	d110      	bne.n	4018e4 <??execute_uart_command_7>
  4018c2:	466c      	mov	r4, sp
  4018c4:	20fd      	movs	r0, #253
  4018c6:	7020      	strb	r0, [r4, #0]
  4018c8:	2003      	movs	r0, #3
  4018ca:	7060      	strb	r0, [r4, #1]
  4018cc:	20ff      	movs	r0, #255
  4018ce:	70e0      	strb	r0, [r4, #3]
  4018d0:	2913      	cmp	r1, #19
  4018d2:	d2e4      	bcs.n	40189e <??execute_uart_command_4>
  4018d4:	4d14      	ldr	r5, [pc, #80]	(401928 <??execute_uart_command_6>)
  4018d6:	76a9      	strb	r1, [r5, #26]
  4018d8:	0008      	lsls	r0, r1, #0
  4018da:	f002 f8d8 	bl	403a8e <MLMEPAOutputAdjust>
  4018de:	2059      	movs	r0, #89
  4018e0:	70a0      	strb	r0, [r4, #2]
  4018e2:	e014      	b.n	40190e <??execute_uart_command_5>

004018e4 <??execute_uart_command_7>:
  4018e4:	2804      	cmp	r0, #4
  4018e6:	d106      	bne.n	4018f6 <??execute_uart_command_8>
  4018e8:	466c      	mov	r4, sp
  4018ea:	20fd      	movs	r0, #253
  4018ec:	7020      	strb	r0, [r4, #0]
  4018ee:	2004      	movs	r0, #4
  4018f0:	7060      	strb	r0, [r4, #1]
  4018f2:	480e      	ldr	r0, [pc, #56]	(40192c <??execute_uart_command_6+0x4>)
  4018f4:	e007      	b.n	401906 <??execute_uart_command_9>

004018f6 <??execute_uart_command_8>:
  4018f6:	2805      	cmp	r0, #5
  4018f8:	d10f      	bne.n	40191a <??execute_uart_command_10>
  4018fa:	466c      	mov	r4, sp
  4018fc:	20fd      	movs	r0, #253
  4018fe:	7020      	strb	r0, [r4, #0]
  401900:	2005      	movs	r0, #5
  401902:	7060      	strb	r0, [r4, #1]
  401904:	480a      	ldr	r0, [pc, #40]	(401930 <??execute_uart_command_6+0x8>)

00401906 <??execute_uart_command_9>:
  401906:	7800      	ldrb	r0, [r0, #0]

00401908 <??execute_uart_command_1>:
  401908:	70a0      	strb	r0, [r4, #2]
  40190a:	20ff      	movs	r0, #255
  40190c:	70e0      	strb	r0, [r4, #3]

0040190e <??execute_uart_command_5>:
  40190e:	2204      	movs	r2, #4
  401910:	4669      	mov	r1, sp
  401912:	2000      	movs	r0, #0
  401914:	f401 fbb0 	bl	3078 <UartWriteData>

00401918 <??execute_uart_command_11>:
  401918:	e794      	b.n	401844 <?Subroutine3>

0040191a <??execute_uart_command_10>:
  40191a:	2807      	cmp	r0, #7
  40191c:	d1fc      	bne.n	401918 <??execute_uart_command_11>
  40191e:	4805      	ldr	r0, [pc, #20]	(401934 <??execute_uart_command_6+0xc>)
  401920:	2101      	movs	r1, #1
  401922:	7001      	strb	r1, [r0, #0]
  401924:	e7f8      	b.n	401918 <??execute_uart_command_11>
  401926:	46c0      	nop			(mov r8, r8)

00401928 <??execute_uart_command_6>:
  401928:	00405244 	.word	0x00405244
  40192c:	00405259 	.word	0x00405259
  401930:	0040525e 	.word	0x0040525e
  401934:	0040525d 	.word	0x0040525d

00401938 <cpy_uart_to_data_buff>:
  401938:	b538      	push	{r3, r4, r5, lr}
  40193a:	0004      	lsls	r4, r0, #0
  40193c:	2500      	movs	r5, #0
  40193e:	e002      	b.n	401946 <??cpy_uart_to_data_buff_0>

00401940 <??cpy_uart_to_data_buff_1>:
  401940:	1c6d      	adds	r5, r5, #1
  401942:	062d      	lsls	r5, r5, #24
  401944:	0e2d      	lsrs	r5, r5, #24

00401946 <??cpy_uart_to_data_buff_0>:
  401946:	1961      	adds	r1, r4, r5
  401948:	2000      	movs	r0, #0
  40194a:	f401 fcd7 	bl	32fc <UartGetByteFromRxBuffer>
  40194e:	2800      	cmp	r0, #0
  401950:	d001      	beq.n	401956 <??cpy_uart_to_data_buff_2>
  401952:	2d0d      	cmp	r5, #13
  401954:	d3f4      	bcc.n	401940 <??cpy_uart_to_data_buff_1>

00401956 <??cpy_uart_to_data_buff_2>:
  401956:	0028      	lsls	r0, r5, #0
  401958:	b001      	add	sp, #4
  40195a:	9902      	ldr	r1, [sp, #8]
  40195c:	bc30      	pop	{r4, r5}
  40195e:	b001      	add	sp, #4
  401960:	4708      	bx	r1
	...

00401964 <LCD_Init>:
  401964:	b538      	push	{r3, r4, r5, lr}
  401966:	2100      	movs	r1, #0
  401968:	2009      	movs	r0, #9
  40196a:	f406 feff 	bl	876c <Gpio_SetPinFunction>
  40196e:	2100      	movs	r1, #0
  401970:	2014      	movs	r0, #20
  401972:	f406 fefb 	bl	876c <Gpio_SetPinFunction>
  401976:	2100      	movs	r1, #0
  401978:	2008      	movs	r0, #8
  40197a:	f406 fef7 	bl	876c <Gpio_SetPinFunction>
  40197e:	2100      	movs	r1, #0
  401980:	2015      	movs	r0, #21
  401982:	f406 fef3 	bl	876c <Gpio_SetPinFunction>
  401986:	2100      	movs	r1, #0
  401988:	202d      	movs	r0, #45
  40198a:	f406 feef 	bl	876c <Gpio_SetPinFunction>
  40198e:	2100      	movs	r1, #0
  401990:	2013      	movs	r0, #19
  401992:	f406 feeb 	bl	876c <Gpio_SetPinFunction>
  401996:	2100      	movs	r1, #0
  401998:	2009      	movs	r0, #9
  40199a:	f406 fd71 	bl	8480 <Gpio_SetPinData>
  40199e:	2100      	movs	r1, #0
  4019a0:	2014      	movs	r0, #20
  4019a2:	f406 fd6d 	bl	8480 <Gpio_SetPinData>
  4019a6:	2100      	movs	r1, #0
  4019a8:	2008      	movs	r0, #8
  4019aa:	f406 fd69 	bl	8480 <Gpio_SetPinData>
  4019ae:	2101      	movs	r1, #1
  4019b0:	2015      	movs	r0, #21
  4019b2:	f406 fd65 	bl	8480 <Gpio_SetPinData>
  4019b6:	2101      	movs	r1, #1
  4019b8:	202d      	movs	r0, #45
  4019ba:	f406 fd61 	bl	8480 <Gpio_SetPinData>
  4019be:	2101      	movs	r1, #1
  4019c0:	2013      	movs	r0, #19
  4019c2:	f406 fd5d 	bl	8480 <Gpio_SetPinData>
  4019c6:	2101      	movs	r1, #1
  4019c8:	2014      	movs	r0, #20
  4019ca:	f406 fdd3 	bl	8574 <Gpio_SetPinReadSource>
  4019ce:	2101      	movs	r1, #1
  4019d0:	2015      	movs	r0, #21
  4019d2:	f406 fdcf 	bl	8574 <Gpio_SetPinReadSource>
  4019d6:	2101      	movs	r1, #1
  4019d8:	2008      	movs	r0, #8
  4019da:	f406 fdcb 	bl	8574 <Gpio_SetPinReadSource>
  4019de:	2101      	movs	r1, #1
  4019e0:	2009      	movs	r0, #9
  4019e2:	f406 fdc7 	bl	8574 <Gpio_SetPinReadSource>
  4019e6:	2101      	movs	r1, #1
  4019e8:	200a      	movs	r0, #10
  4019ea:	f406 fdc3 	bl	8574 <Gpio_SetPinReadSource>
  4019ee:	2101      	movs	r1, #1
  4019f0:	202d      	movs	r0, #45
  4019f2:	f406 fdbf 	bl	8574 <Gpio_SetPinReadSource>
  4019f6:	2101      	movs	r1, #1
  4019f8:	2013      	movs	r0, #19
  4019fa:	f406 fdbb 	bl	8574 <Gpio_SetPinReadSource>
  4019fe:	2101      	movs	r1, #1
  401a00:	2014      	movs	r0, #20
  401a02:	f406 fcd1 	bl	83a8 <Gpio_SetPinDir>
  401a06:	2101      	movs	r1, #1
  401a08:	2015      	movs	r0, #21
  401a0a:	f406 fccd 	bl	83a8 <Gpio_SetPinDir>
  401a0e:	2101      	movs	r1, #1
  401a10:	2008      	movs	r0, #8
  401a12:	f406 fcc9 	bl	83a8 <Gpio_SetPinDir>
  401a16:	2101      	movs	r1, #1
  401a18:	2009      	movs	r0, #9
  401a1a:	f406 fcc5 	bl	83a8 <Gpio_SetPinDir>
  401a1e:	2101      	movs	r1, #1
  401a20:	200a      	movs	r0, #10
  401a22:	f406 fcc1 	bl	83a8 <Gpio_SetPinDir>
  401a26:	2101      	movs	r1, #1
  401a28:	202d      	movs	r0, #45
  401a2a:	f406 fcbd 	bl	83a8 <Gpio_SetPinDir>
  401a2e:	2101      	movs	r1, #1
  401a30:	2013      	movs	r0, #19
  401a32:	f406 fcb9 	bl	83a8 <Gpio_SetPinDir>
  401a36:	22f0      	movs	r2, #240
  401a38:	2100      	movs	r1, #0
  401a3a:	2000      	movs	r0, #0
  401a3c:	f406 fe52 	bl	86e4 <Gpio_SetPortFunction>
  401a40:	220f      	movs	r2, #15
  401a42:	2100      	movs	r1, #0
  401a44:	2001      	movs	r0, #1
  401a46:	f406 fe4d 	bl	86e4 <Gpio_SetPortFunction>
  401a4a:	23f0      	movs	r3, #240
  401a4c:	22f0      	movs	r2, #240
  401a4e:	2103      	movs	r1, #3
  401a50:	2000      	movs	r0, #0
  401a52:	f406 fc41 	bl	82d8 <Gpio_WrPortSetting>
  401a56:	230f      	movs	r3, #15
  401a58:	220f      	movs	r2, #15
  401a5a:	2103      	movs	r1, #3
  401a5c:	2001      	movs	r0, #1
  401a5e:	f406 fc3b 	bl	82d8 <Gpio_WrPortSetting>
  401a62:	23f0      	movs	r3, #240
  401a64:	22f0      	movs	r2, #240
  401a66:	2104      	movs	r1, #4
  401a68:	2000      	movs	r0, #0
  401a6a:	f406 fc35 	bl	82d8 <Gpio_WrPortSetting>
  401a6e:	230f      	movs	r3, #15
  401a70:	220f      	movs	r2, #15
  401a72:	2104      	movs	r1, #4
  401a74:	2001      	movs	r0, #1
  401a76:	f406 fc2f 	bl	82d8 <Gpio_WrPortSetting>
  401a7a:	23f0      	movs	r3, #240
  401a7c:	22f0      	movs	r2, #240
  401a7e:	2106      	movs	r1, #6
  401a80:	2000      	movs	r0, #0
  401a82:	f406 fc29 	bl	82d8 <Gpio_WrPortSetting>
  401a86:	230f      	movs	r3, #15
  401a88:	220f      	movs	r2, #15
  401a8a:	2106      	movs	r1, #6
  401a8c:	2001      	movs	r0, #1
  401a8e:	f406 fc23 	bl	82d8 <Gpio_WrPortSetting>
  401a92:	25f0      	movs	r5, #240
  401a94:	43ed      	mvns	r5, r5
  401a96:	23f0      	movs	r3, #240
  401a98:	002a      	lsls	r2, r5, #0
  401a9a:	2102      	movs	r1, #2
  401a9c:	2000      	movs	r0, #0
  401a9e:	f406 fc1b 	bl	82d8 <Gpio_WrPortSetting>
  401aa2:	240f      	movs	r4, #15
  401aa4:	43e4      	mvns	r4, r4
  401aa6:	230f      	movs	r3, #15
  401aa8:	0022      	lsls	r2, r4, #0
  401aaa:	2102      	movs	r1, #2
  401aac:	2001      	movs	r0, #1
  401aae:	f406 fc13 	bl	82d8 <Gpio_WrPortSetting>
  401ab2:	22f0      	movs	r2, #240
  401ab4:	0029      	lsls	r1, r5, #0
  401ab6:	2000      	movs	r0, #0
  401ab8:	f406 fc60 	bl	837c <Gpio_SetPortDir>
  401abc:	220f      	movs	r2, #15
  401abe:	0021      	lsls	r1, r4, #0
  401ac0:	2001      	movs	r0, #1
  401ac2:	f406 fc5b 	bl	837c <Gpio_SetPortDir>
  401ac6:	2100      	movs	r1, #0
  401ac8:	202d      	movs	r0, #45
  401aca:	f406 fcd9 	bl	8480 <Gpio_SetPinData>
  401ace:	2100      	movs	r1, #0
  401ad0:	2013      	movs	r0, #19
  401ad2:	f406 fcd5 	bl	8480 <Gpio_SetPinData>
  401ad6:	200a      	movs	r0, #10
  401ad8:	f002 f966 	bl	403da8 <DelayUs>
  401adc:	2101      	movs	r1, #1
  401ade:	202d      	movs	r0, #45
  401ae0:	f406 fcce 	bl	8480 <Gpio_SetPinData>
  401ae4:	2101      	movs	r1, #1
  401ae6:	2013      	movs	r0, #19
  401ae8:	f406 fcca 	bl	8480 <Gpio_SetPinData>
  401aec:	2001      	movs	r0, #1
  401aee:	f002 f949 	bl	403d84 <DelayMs>
  401af2:	20e2      	movs	r0, #226
  401af4:	f000 fa5a 	bl	401fac <LCD_WriteCommand>
  401af8:	200a      	movs	r0, #10
  401afa:	f002 f955 	bl	403da8 <DelayUs>
  401afe:	20a2      	movs	r0, #162
  401b00:	f000 fa54 	bl	401fac <LCD_WriteCommand>
  401b04:	20a1      	movs	r0, #161
  401b06:	f000 fa51 	bl	401fac <LCD_WriteCommand>
  401b0a:	20c0      	movs	r0, #192
  401b0c:	f000 fa4e 	bl	401fac <LCD_WriteCommand>
  401b10:	2024      	movs	r0, #36
  401b12:	f000 fa4b 	bl	401fac <LCD_WriteCommand>
  401b16:	2081      	movs	r0, #129
  401b18:	f000 fa48 	bl	401fac <LCD_WriteCommand>
  401b1c:	2030      	movs	r0, #48
  401b1e:	f000 fa45 	bl	401fac <LCD_WriteCommand>
  401b22:	202f      	movs	r0, #47
  401b24:	f000 fa42 	bl	401fac <LCD_WriteCommand>
  401b28:	200a      	movs	r0, #10
  401b2a:	f002 f93d 	bl	403da8 <DelayUs>
  401b2e:	20af      	movs	r0, #175
  401b30:	f000 fa3c 	bl	401fac <LCD_WriteCommand>
  401b34:	200a      	movs	r0, #10
  401b36:	f002 f937 	bl	403da8 <DelayUs>
  401b3a:	200f      	movs	r0, #15
  401b3c:	f000 fab2 	bl	4020a4 <LCD_SetBacklight>
  401b40:	2000      	movs	r0, #0
  401b42:	f000 fa9f 	bl	402084 <LCD_SetFont>
  401b46:	481a      	ldr	r0, [pc, #104]	(401bb0 <??DataTable1>)
  401b48:	2100      	movs	r1, #0
  401b4a:	7001      	strb	r1, [r0, #0]
  401b4c:	b001      	add	sp, #4
  401b4e:	9802      	ldr	r0, [sp, #8]
  401b50:	bc30      	pop	{r4, r5}
  401b52:	b001      	add	sp, #4
  401b54:	4700      	bx	r0

00401b56 <LCD_ClearDisplay>:
  401b56:	b570      	push	{r4, r5, r6, lr}
  401b58:	2600      	movs	r6, #0
  401b5a:	4c15      	ldr	r4, [pc, #84]	(401bb0 <??DataTable1>)
  401b5c:	7066      	strb	r6, [r4, #1]
  401b5e:	4d30      	ldr	r5, [pc, #192]	(401c20 <??DataTable4>)
  401b60:	78e8      	ldrb	r0, [r5, #3]
  401b62:	7821      	ldrb	r1, [r4, #0]
  401b64:	2901      	cmp	r1, #1
  401b66:	d103      	bne.n	401b70 <??LCD_ClearDisplay_0>
  401b68:	7929      	ldrb	r1, [r5, #4]
  401b6a:	4001      	ands	r1, r0
  401b6c:	d000      	beq.n	401b70 <??LCD_ClearDisplay_0>
  401b6e:	4388      	bics	r0, r1

00401b70 <??LCD_ClearDisplay_0>:
  401b70:	70a0      	strb	r0, [r4, #2]
  401b72:	e002      	b.n	401b7a <??LCD_ClearDisplay_1>

00401b74 <??LCD_ClearDisplay_2>:
  401b74:	1c76      	adds	r6, r6, #1
  401b76:	0636      	lsls	r6, r6, #24
  401b78:	0e36      	lsrs	r6, r6, #24

00401b7a <??LCD_ClearDisplay_1>:
  401b7a:	78a0      	ldrb	r0, [r4, #2]
  401b7c:	4130      	asrs	r0, r6
  401b7e:	07c0      	lsls	r0, r0, #31
  401b80:	d401      	bmi.n	401b86 <??LCD_ClearDisplay_3>
  401b82:	2e08      	cmp	r6, #8
  401b84:	d3f6      	bcc.n	401b74 <??LCD_ClearDisplay_2>

00401b86 <??LCD_ClearDisplay_3>:
  401b86:	0030      	lsls	r0, r6, #0
  401b88:	2808      	cmp	r0, #8
  401b8a:	d00c      	beq.n	401ba6 <??LCD_ClearDisplay_4>
  401b8c:	f000 fbc4 	bl	402318 <LCD_ClearLine>
  401b90:	2801      	cmp	r0, #1
  401b92:	d1f2      	bne.n	401b7a <??LCD_ClearDisplay_1>
  401b94:	2101      	movs	r1, #1
  401b96:	40b1      	lsls	r1, r6
  401b98:	43c8      	mvns	r0, r1
  401b9a:	78e9      	ldrb	r1, [r5, #3]
  401b9c:	4001      	ands	r1, r0
  401b9e:	70e9      	strb	r1, [r5, #3]
  401ba0:	78a1      	ldrb	r1, [r4, #2]
  401ba2:	4008      	ands	r0, r1
  401ba4:	e7e4      	b.n	401b70 <??LCD_ClearDisplay_0>

00401ba6 <??LCD_ClearDisplay_4>:
  401ba6:	9803      	ldr	r0, [sp, #12]
  401ba8:	bc70      	pop	{r4, r5, r6}
  401baa:	b001      	add	sp, #4
  401bac:	4700      	bx	r0
	...

00401bb0 <??DataTable1>:
  401bb0:	004052a8 	.word	0x004052a8

00401bb4 <LCD_WriteString_NormalFont>:
  401bb4:	b5f8      	push	{r3, r4, r5, r6, r7, lr}
  401bb6:	000d      	lsls	r5, r1, #0
  401bb8:	0041      	lsls	r1, r0, #1
  401bba:	1808      	adds	r0, r1, r0
  401bbc:	4917      	ldr	r1, [pc, #92]	(401c1c <??DataTable3>)
  401bbe:	1808      	adds	r0, r1, r0
  401bc0:	4e17      	ldr	r6, [pc, #92]	(401c20 <??DataTable4>)
  401bc2:	7901      	ldrb	r1, [r0, #4]
  401bc4:	7031      	strb	r1, [r6, #0]
  401bc6:	7940      	ldrb	r0, [r0, #5]
  401bc8:	7070      	strb	r0, [r6, #1]
  401bca:	0028      	lsls	r0, r5, #0
  401bcc:	2400      	movs	r4, #0
  401bce:	2100      	movs	r1, #0
  401bd0:	2700      	movs	r7, #0
  401bd2:	e006      	b.n	401be2 <??LCD_WriteString_NormalFont_0>

00401bd4 <??LCD_WriteString_NormalFont_1>:
  401bd4:	1c49      	adds	r1, r1, #1
  401bd6:	0609      	lsls	r1, r1, #24
  401bd8:	1609      	asrs	r1, r1, #24
  401bda:	1c7f      	adds	r7, r7, #1
  401bdc:	063f      	lsls	r7, r7, #24
  401bde:	163f      	asrs	r7, r7, #24
  401be0:	1c40      	adds	r0, r0, #1

00401be2 <??LCD_WriteString_NormalFont_0>:
  401be2:	7802      	ldrb	r2, [r0, #0]
  401be4:	2a00      	cmp	r2, #0
  401be6:	d001      	beq.n	401bec <??LCD_WriteString_NormalFont_2>
  401be8:	2915      	cmp	r1, #21
  401bea:	dbf3      	blt.n	401bd4 <??LCD_WriteString_NormalFont_1>

00401bec <??LCD_WriteString_NormalFont_2>:
  401bec:	2f16      	cmp	r7, #22
  401bee:	db00      	blt.n	401bf2 <??LCD_WriteString_NormalFont_3>
  401bf0:	2715      	movs	r7, #21

00401bf2 <??LCD_WriteString_NormalFont_3>:
  401bf2:	063f      	lsls	r7, r7, #24
  401bf4:	0e3f      	lsrs	r7, r7, #24
  401bf6:	e009      	b.n	401c0c <??LCD_WriteString_NormalFont_4>

00401bf8 <??LCD_WriteString_NormalFont_5>:
  401bf8:	7872      	ldrb	r2, [r6, #1]
  401bfa:	7831      	ldrb	r1, [r6, #0]
  401bfc:	7828      	ldrb	r0, [r5, #0]
  401bfe:	f000 faf1 	bl	4021e4 <LCD_WriteCharacter>
  401c02:	7830      	ldrb	r0, [r6, #0]
  401c04:	1d80      	adds	r0, r0, #6
  401c06:	7030      	strb	r0, [r6, #0]
  401c08:	1c6d      	adds	r5, r5, #1
  401c0a:	1c64      	adds	r4, r4, #1

00401c0c <??LCD_WriteString_NormalFont_4>:
  401c0c:	0620      	lsls	r0, r4, #24
  401c0e:	0e00      	lsrs	r0, r0, #24
  401c10:	42b8      	cmp	r0, r7
  401c12:	d201      	bcs.n	401c18 <??LCD_WriteString_NormalFont_6>
  401c14:	2815      	cmp	r0, #21
  401c16:	d3ef      	bcc.n	401bf8 <??LCD_WriteString_NormalFont_5>

00401c18 <??LCD_WriteString_NormalFont_6>:
  401c18:	b001      	add	sp, #4
  401c1a:	e349      	b.n	4022b0 <??Subroutine2_0>

00401c1c <??DataTable3>:
  401c1c:	00405484 	.word	0x00405484

00401c20 <??DataTable4>:
  401c20:	004052b0 	.word	0x004052b0

00401c24 <LCD_WriteStringValue>:
  401c24:	b5f5      	push	{r0, r2, r4, r5, r6, r7, lr}
  401c26:	b08d      	sub	sp, #52
  401c28:	000c      	lsls	r4, r1, #0
  401c2a:	4d61      	ldr	r5, [pc, #388]	(401db0 <??LCD_WriteStringValue_0>)
  401c2c:	4668      	mov	r0, sp
  401c2e:	2105      	movs	r1, #5
  401c30:	7001      	strb	r1, [r0, #0]
  401c32:	2600      	movs	r6, #0
  401c34:	2700      	movs	r7, #0
  401c36:	485f      	ldr	r0, [pc, #380]	(401db4 <??LCD_WriteStringValue_0+0x4>)
  401c38:	7006      	strb	r6, [r0, #0]
  401c3a:	2b01      	cmp	r3, #1
  401c3c:	d16c      	bne.n	401d18 <??LCD_WriteStringValue_1>
  401c3e:	2c64      	cmp	r4, #100
  401c40:	d204      	bcs.n	401c4c <??LCD_WriteStringValue_2>
  401c42:	4668      	mov	r0, sp
  401c44:	2102      	movs	r1, #2
  401c46:	7001      	strb	r1, [r0, #0]
  401c48:	250a      	movs	r5, #10
  401c4a:	e00f      	b.n	401c6c <??LCD_WriteStringValue_3>

00401c4c <??LCD_WriteStringValue_2>:
  401c4c:	20fa      	movs	r0, #250
  401c4e:	0080      	lsls	r0, r0, #2
  401c50:	4284      	cmp	r4, r0
  401c52:	d204      	bcs.n	401c5e <??LCD_WriteStringValue_4>
  401c54:	4668      	mov	r0, sp
  401c56:	2103      	movs	r1, #3
  401c58:	7001      	strb	r1, [r0, #0]
  401c5a:	2564      	movs	r5, #100
  401c5c:	e006      	b.n	401c6c <??LCD_WriteStringValue_3>

00401c5e <??LCD_WriteStringValue_4>:
  401c5e:	1e69      	subs	r1, r5, #1
  401c60:	428c      	cmp	r4, r1
  401c62:	d203      	bcs.n	401c6c <??LCD_WriteStringValue_3>
  401c64:	4669      	mov	r1, sp
  401c66:	2204      	movs	r2, #4
  401c68:	700a      	strb	r2, [r1, #0]
  401c6a:	0005      	lsls	r5, r0, #0

00401c6c <??LCD_WriteStringValue_3>:
  401c6c:	1c78      	adds	r0, r7, #1
  401c6e:	0600      	lsls	r0, r0, #24
  401c70:	0e00      	lsrs	r0, r0, #24
  401c72:	9001      	str	r0, [sp, #4]
  401c74:	063f      	lsls	r7, r7, #24
  401c76:	0e3f      	lsrs	r7, r7, #24
  401c78:	0424      	lsls	r4, r4, #16
  401c7a:	0c24      	lsrs	r4, r4, #16
  401c7c:	0020      	lsls	r0, r4, #0
  401c7e:	042d      	lsls	r5, r5, #16
  401c80:	142d      	asrs	r5, r5, #16
  401c82:	0029      	lsls	r1, r5, #0
  401c84:	f7fe fe3c 	bl	400900 <?Veneer (3) for __aeabi_idivmod>
  401c88:	2800      	cmp	r0, #0
  401c8a:	d009      	beq.n	401ca0 <??LCD_WriteStringValue_5>
  401c8c:	a902      	add	r1, sp, #8
  401c8e:	3030      	adds	r0, #48
  401c90:	55c8      	strb	r0, [r1, r7]
  401c92:	9f01      	ldr	r7, [sp, #4]
  401c94:	0020      	lsls	r0, r4, #0
  401c96:	0029      	lsls	r1, r5, #0
  401c98:	f7fe fe32 	bl	400900 <?Veneer (3) for __aeabi_idivmod>
  401c9c:	000c      	lsls	r4, r1, #0
  401c9e:	e003      	b.n	401ca8 <??LCD_WriteStringValue_6>

00401ca0 <??LCD_WriteStringValue_5>:
  401ca0:	a802      	add	r0, sp, #8
  401ca2:	2130      	movs	r1, #48
  401ca4:	55c1      	strb	r1, [r0, r7]
  401ca6:	9f01      	ldr	r7, [sp, #4]

00401ca8 <??LCD_WriteStringValue_6>:
  401ca8:	0028      	lsls	r0, r5, #0
  401caa:	210a      	movs	r1, #10
  401cac:	f7fe fe28 	bl	400900 <?Veneer (3) for __aeabi_idivmod>
  401cb0:	0005      	lsls	r5, r0, #0
  401cb2:	1c76      	adds	r6, r6, #1
  401cb4:	0636      	lsls	r6, r6, #24
  401cb6:	0e36      	lsrs	r6, r6, #24
  401cb8:	4669      	mov	r1, sp
  401cba:	7809      	ldrb	r1, [r1, #0]
  401cbc:	428e      	cmp	r6, r1
  401cbe:	d3d5      	bcc.n	401c6c <??LCD_WriteStringValue_3>
  401cc0:	063f      	lsls	r7, r7, #24
  401cc2:	0e3f      	lsrs	r7, r7, #24
  401cc4:	a802      	add	r0, sp, #8
  401cc6:	2100      	movs	r1, #0
  401cc8:	55c1      	strb	r1, [r0, r7]
  401cca:	2700      	movs	r7, #0
  401ccc:	a804      	add	r0, sp, #16
  401cce:	e006      	b.n	401cde <??LCD_WriteStringValue_7>

00401cd0 <??LCD_WriteStringValue_8>:
  401cd0:	55c1      	strb	r1, [r0, r7]
  401cd2:	1c7f      	adds	r7, r7, #1
  401cd4:	063f      	lsls	r7, r7, #24
  401cd6:	0e3f      	lsrs	r7, r7, #24
  401cd8:	990d      	ldr	r1, [sp, #52]
  401cda:	1c49      	adds	r1, r1, #1
  401cdc:	910d      	str	r1, [sp, #52]

00401cde <??LCD_WriteStringValue_7>:
  401cde:	990d      	ldr	r1, [sp, #52]
  401ce0:	7809      	ldrb	r1, [r1, #0]
  401ce2:	2900      	cmp	r1, #0
  401ce4:	d001      	beq.n	401cea <??LCD_WriteStringValue_9>
  401ce6:	2f15      	cmp	r7, #21
  401ce8:	d3f2      	bcc.n	401cd0 <??LCD_WriteStringValue_8>

00401cea <??LCD_WriteStringValue_9>:
  401cea:	2600      	movs	r6, #0
  401cec:	e006      	b.n	401cfc <??LCD_WriteStringValue_10>

00401cee <??LCD_WriteStringValue_11>:
  401cee:	55c1      	strb	r1, [r0, r7]
  401cf0:	1c76      	adds	r6, r6, #1
  401cf2:	0636      	lsls	r6, r6, #24
  401cf4:	0e36      	lsrs	r6, r6, #24
  401cf6:	1c7f      	adds	r7, r7, #1
  401cf8:	063f      	lsls	r7, r7, #24
  401cfa:	0e3f      	lsrs	r7, r7, #24

00401cfc <??LCD_WriteStringValue_10>:
  401cfc:	aa02      	add	r2, sp, #8
  401cfe:	5d91      	ldrb	r1, [r2, r6]
  401d00:	2900      	cmp	r1, #0
  401d02:	d001      	beq.n	401d08 <??LCD_WriteStringValue_12>
  401d04:	2f15      	cmp	r7, #21
  401d06:	d3f2      	bcc.n	401cee <??LCD_WriteStringValue_11>

00401d08 <??LCD_WriteStringValue_12>:
  401d08:	2100      	movs	r1, #0
  401d0a:	55c1      	strb	r1, [r0, r7]
  401d0c:	a904      	add	r1, sp, #16
  401d0e:	a80e      	add	r0, sp, #56
  401d10:	7800      	ldrb	r0, [r0, #0]
  401d12:	f7ff ff4f 	bl	401bb4 <LCD_WriteString_NormalFont>
  401d16:	e048      	b.n	401daa <??LCD_WriteStringValue_13>

00401d18 <??LCD_WriteStringValue_1>:
  401d18:	4927      	ldr	r1, [pc, #156]	(401db8 <??DataTable5>)
  401d1a:	2b00      	cmp	r3, #0
  401d1c:	a80b      	add	r0, sp, #44
  401d1e:	d13f      	bne.n	401da0 <??LCD_WriteStringValue_14>

00401d20 <??LCD_WriteStringValue_15>:
  401d20:	1122      	asrs	r2, r4, #4
  401d22:	0112      	lsls	r2, r2, #4
  401d24:	1aa2      	subs	r2, r4, r2
  401d26:	188a      	adds	r2, r1, r2
  401d28:	7d12      	ldrb	r2, [r2, #20]
  401d2a:	5582      	strb	r2, [r0, r6]
  401d2c:	0324      	lsls	r4, r4, #12
  401d2e:	1c76      	adds	r6, r6, #1
  401d30:	0636      	lsls	r6, r6, #24
  401d32:	0e36      	lsrs	r6, r6, #24
  401d34:	0c24      	lsrs	r4, r4, #16
  401d36:	2c10      	cmp	r4, #16
  401d38:	d2f2      	bcs.n	401d20 <??LCD_WriteStringValue_15>
  401d3a:	1909      	adds	r1, r1, r4
  401d3c:	7d09      	ldrb	r1, [r1, #20]
  401d3e:	5581      	strb	r1, [r0, r6]
  401d40:	a909      	add	r1, sp, #36
  401d42:	e006      	b.n	401d52 <??LCD_WriteStringValue_16>

00401d44 <??LCD_WriteStringValue_17>:
  401d44:	5d83      	ldrb	r3, [r0, r6]
  401d46:	55cb      	strb	r3, [r1, r7]
  401d48:	1e76      	subs	r6, r6, #1
  401d4a:	0636      	lsls	r6, r6, #24
  401d4c:	0e36      	lsrs	r6, r6, #24
  401d4e:	0617      	lsls	r7, r2, #24
  401d50:	0e3f      	lsrs	r7, r7, #24

00401d52 <??LCD_WriteStringValue_16>:
  401d52:	1c7a      	adds	r2, r7, #1
  401d54:	0033      	lsls	r3, r6, #0
  401d56:	d1f5      	bne.n	401d44 <??LCD_WriteStringValue_17>
  401d58:	7800      	ldrb	r0, [r0, #0]
  401d5a:	55c8      	strb	r0, [r1, r7]
  401d5c:	0612      	lsls	r2, r2, #24
  401d5e:	0e12      	lsrs	r2, r2, #24
  401d60:	2000      	movs	r0, #0
  401d62:	5488      	strb	r0, [r1, r2]
  401d64:	2700      	movs	r7, #0
  401d66:	a804      	add	r0, sp, #16
  401d68:	e006      	b.n	401d78 <??LCD_WriteStringValue_18>

00401d6a <??LCD_WriteStringValue_19>:
  401d6a:	55c2      	strb	r2, [r0, r7]
  401d6c:	1c7f      	adds	r7, r7, #1
  401d6e:	063f      	lsls	r7, r7, #24
  401d70:	0e3f      	lsrs	r7, r7, #24
  401d72:	9a0d      	ldr	r2, [sp, #52]
  401d74:	1c52      	adds	r2, r2, #1
  401d76:	920d      	str	r2, [sp, #52]

00401d78 <??LCD_WriteStringValue_18>:
  401d78:	9a0d      	ldr	r2, [sp, #52]
  401d7a:	7812      	ldrb	r2, [r2, #0]
  401d7c:	2a00      	cmp	r2, #0
  401d7e:	d001      	beq.n	401d84 <??LCD_WriteStringValue_20>
  401d80:	2f15      	cmp	r7, #21
  401d82:	d3f2      	bcc.n	401d6a <??LCD_WriteStringValue_19>

00401d84 <??LCD_WriteStringValue_20>:
  401d84:	2600      	movs	r6, #0

00401d86 <??LCD_WriteStringValue_21>:
  401d86:	5d8a      	ldrb	r2, [r1, r6]
  401d88:	2a00      	cmp	r2, #0
  401d8a:	d0bd      	beq.n	401d08 <??LCD_WriteStringValue_12>
  401d8c:	2f15      	cmp	r7, #21
  401d8e:	d2bb      	bcs.n	401d08 <??LCD_WriteStringValue_12>
  401d90:	55c2      	strb	r2, [r0, r7]
  401d92:	1c76      	adds	r6, r6, #1
  401d94:	0636      	lsls	r6, r6, #24
  401d96:	0e36      	lsrs	r6, r6, #24
  401d98:	1c7f      	adds	r7, r7, #1
  401d9a:	063f      	lsls	r7, r7, #24
  401d9c:	0e3f      	lsrs	r7, r7, #24
  401d9e:	e7f2      	b.n	401d86 <??LCD_WriteStringValue_21>

00401da0 <??LCD_WriteStringValue_14>:
  401da0:	3128      	adds	r1, #40
  401da2:	a80e      	add	r0, sp, #56
  401da4:	7800      	ldrb	r0, [r0, #0]
  401da6:	f7ff ff05 	bl	401bb4 <LCD_WriteString_NormalFont>

00401daa <??LCD_WriteStringValue_13>:
  401daa:	b00f      	add	sp, #60
  401dac:	e280      	b.n	4022b0 <??Subroutine2_0>
  401dae:	46c0      	nop			(mov r8, r8)

00401db0 <??LCD_WriteStringValue_0>:
  401db0:	00002710 	.word	0x00002710
  401db4:	004052a9 	.word	0x004052a9

00401db8 <??DataTable5>:
  401db8:	00403e04 	.word	0x00403e04

00401dbc <LCD_WriteStringDecValue>:
  401dbc:	b5ff      	push	{r0, r1, r2, r3, r4, r5, r6, r7, lr}
  401dbe:	b091      	sub	sp, #68
  401dc0:	4e76      	ldr	r6, [pc, #472]	(401f9c <??LCD_WriteStringDecValue_0>)
  401dc2:	4668      	mov	r0, sp
  401dc4:	2105      	movs	r1, #5
  401dc6:	7201      	strb	r1, [r0, #8]
  401dc8:	2400      	movs	r4, #0
  401dca:	2500      	movs	r5, #0
  401dcc:	a807      	add	r0, sp, #28
  401dce:	2114      	movs	r1, #20
  401dd0:	f002 f8ae 	bl	403f30 <?Veneer (4) for __aeabi_memclr4>
  401dd4:	4872      	ldr	r0, [pc, #456]	(401fa0 <??LCD_WriteStringDecValue_0+0x4>)
  401dd6:	7004      	strb	r4, [r0, #0]
  401dd8:	a814      	add	r0, sp, #80
  401dda:	7800      	ldrb	r0, [r0, #0]
  401ddc:	2801      	cmp	r0, #1
  401dde:	d000      	beq.n	401de2 <LCD_WriteStringDecValue+0x26>
  401de0:	e07e      	b.n	401ee0 <??LCD_WriteStringDecValue_1>
  401de2:	a812      	add	r0, sp, #72
  401de4:	8800      	ldrh	r0, [r0, #0]
  401de6:	0a00      	lsrs	r0, r0, #8
  401de8:	9000      	str	r0, [sp, #0]
  401dea:	9401      	str	r4, [sp, #4]

00401dec <??LCD_WriteStringDecValue_2>:
  401dec:	9800      	ldr	r0, [sp, #0]
  401dee:	0600      	lsls	r0, r0, #24
  401df0:	0e00      	lsrs	r0, r0, #24
  401df2:	2864      	cmp	r0, #100
  401df4:	d204      	bcs.n	401e00 <??LCD_WriteStringDecValue_3>
  401df6:	4668      	mov	r0, sp
  401df8:	2102      	movs	r1, #2
  401dfa:	7201      	strb	r1, [r0, #8]
  401dfc:	260a      	movs	r6, #10
  401dfe:	e00c      	b.n	401e1a <??LCD_WriteStringDecValue_4>

00401e00 <??LCD_WriteStringDecValue_3>:
  401e00:	9800      	ldr	r0, [sp, #0]
  401e02:	0600      	lsls	r0, r0, #24
  401e04:	0e00      	lsrs	r0, r0, #24
  401e06:	28ff      	cmp	r0, #255
  401e08:	4668      	mov	r0, sp
  401e0a:	d003      	beq.n	401e14 <??LCD_WriteStringDecValue_5>
  401e0c:	2103      	movs	r1, #3
  401e0e:	7201      	strb	r1, [r0, #8]
  401e10:	2664      	movs	r6, #100
  401e12:	e002      	b.n	401e1a <??LCD_WriteStringDecValue_4>

00401e14 <??LCD_WriteStringDecValue_5>:
  401e14:	7a00      	ldrb	r0, [r0, #8]
  401e16:	2800      	cmp	r0, #0
  401e18:	d028      	beq.n	401e6c <??LCD_WriteStringDecValue_6>

00401e1a <??LCD_WriteStringDecValue_4>:
  401e1a:	4668      	mov	r0, sp
  401e1c:	7a07      	ldrb	r7, [r0, #8]

00401e1e <??LCD_WriteStringDecValue_7>:
  401e1e:	1c68      	adds	r0, r5, #1
  401e20:	0600      	lsls	r0, r0, #24
  401e22:	0e00      	lsrs	r0, r0, #24
  401e24:	9004      	str	r0, [sp, #16]
  401e26:	9800      	ldr	r0, [sp, #0]
  401e28:	0600      	lsls	r0, r0, #24
  401e2a:	0e00      	lsrs	r0, r0, #24
  401e2c:	9003      	str	r0, [sp, #12]
  401e2e:	0031      	lsls	r1, r6, #0
  401e30:	f7fe fd66 	bl	400900 <?Veneer (3) for __aeabi_idivmod>
  401e34:	062d      	lsls	r5, r5, #24
  401e36:	0e2d      	lsrs	r5, r5, #24
  401e38:	2800      	cmp	r0, #0
  401e3a:	d00b      	beq.n	401e54 <??LCD_WriteStringDecValue_8>
  401e3c:	a905      	add	r1, sp, #20
  401e3e:	3030      	adds	r0, #48
  401e40:	5548      	strb	r0, [r1, r5]
  401e42:	9d04      	ldr	r5, [sp, #16]
  401e44:	9803      	ldr	r0, [sp, #12]
  401e46:	0031      	lsls	r1, r6, #0
  401e48:	f7fe fd5a 	bl	400900 <?Veneer (3) for __aeabi_idivmod>
  401e4c:	0609      	lsls	r1, r1, #24
  401e4e:	0e09      	lsrs	r1, r1, #24
  401e50:	9100      	str	r1, [sp, #0]
  401e52:	e003      	b.n	401e5c <??LCD_WriteStringDecValue_9>

00401e54 <??LCD_WriteStringDecValue_8>:
  401e54:	a805      	add	r0, sp, #20
  401e56:	2130      	movs	r1, #48
  401e58:	5541      	strb	r1, [r0, r5]
  401e5a:	9d04      	ldr	r5, [sp, #16]

00401e5c <??LCD_WriteStringDecValue_9>:
  401e5c:	0030      	lsls	r0, r6, #0
  401e5e:	210a      	movs	r1, #10
  401e60:	f7fe fd4e 	bl	400900 <?Veneer (3) for __aeabi_idivmod>
  401e64:	0406      	lsls	r6, r0, #16
  401e66:	1436      	asrs	r6, r6, #16
  401e68:	1e7f      	subs	r7, r7, #1
  401e6a:	d1d8      	bne.n	401e1e <??LCD_WriteStringDecValue_7>

00401e6c <??LCD_WriteStringDecValue_6>:
  401e6c:	9801      	ldr	r0, [sp, #4]
  401e6e:	0600      	lsls	r0, r0, #24
  401e70:	d107      	bne.n	401e82 <??LCD_WriteStringDecValue_10>
  401e72:	0628      	lsls	r0, r5, #24
  401e74:	0e00      	lsrs	r0, r0, #24
  401e76:	a905      	add	r1, sp, #20
  401e78:	222e      	movs	r2, #46
  401e7a:	540a      	strb	r2, [r1, r0]
  401e7c:	1c6d      	adds	r5, r5, #1
  401e7e:	062d      	lsls	r5, r5, #24
  401e80:	0e2d      	lsrs	r5, r5, #24

00401e82 <??LCD_WriteStringDecValue_10>:
  401e82:	a812      	add	r0, sp, #72
  401e84:	8800      	ldrh	r0, [r0, #0]
  401e86:	0600      	lsls	r0, r0, #24
  401e88:	0e00      	lsrs	r0, r0, #24
  401e8a:	9000      	str	r0, [sp, #0]
  401e8c:	9801      	ldr	r0, [sp, #4]
  401e8e:	1c40      	adds	r0, r0, #1
  401e90:	9001      	str	r0, [sp, #4]
  401e92:	0600      	lsls	r0, r0, #24
  401e94:	0e00      	lsrs	r0, r0, #24
  401e96:	2802      	cmp	r0, #2
  401e98:	d3a8      	bcc.n	401dec <??LCD_WriteStringDecValue_2>
  401e9a:	062d      	lsls	r5, r5, #24
  401e9c:	0e2d      	lsrs	r5, r5, #24
  401e9e:	a805      	add	r0, sp, #20
  401ea0:	5544      	strb	r4, [r0, r5]
  401ea2:	2500      	movs	r5, #0
  401ea4:	a907      	add	r1, sp, #28
  401ea6:	e006      	b.n	401eb6 <??LCD_WriteStringDecValue_11>

00401ea8 <??LCD_WriteStringDecValue_12>:
  401ea8:	5548      	strb	r0, [r1, r5]
  401eaa:	1c6d      	adds	r5, r5, #1
  401eac:	062d      	lsls	r5, r5, #24
  401eae:	0e2d      	lsrs	r5, r5, #24
  401eb0:	9811      	ldr	r0, [sp, #68]
  401eb2:	1c40      	adds	r0, r0, #1
  401eb4:	9011      	str	r0, [sp, #68]

00401eb6 <??LCD_WriteStringDecValue_11>:
  401eb6:	9811      	ldr	r0, [sp, #68]
  401eb8:	7800      	ldrb	r0, [r0, #0]
  401eba:	2800      	cmp	r0, #0
  401ebc:	d009      	beq.n	401ed2 <??LCD_WriteStringDecValue_13>
  401ebe:	2d15      	cmp	r5, #21
  401ec0:	d3f2      	bcc.n	401ea8 <??LCD_WriteStringDecValue_12>
  401ec2:	e006      	b.n	401ed2 <??LCD_WriteStringDecValue_13>

00401ec4 <??LCD_WriteStringDecValue_14>:
  401ec4:	5548      	strb	r0, [r1, r5]
  401ec6:	1c64      	adds	r4, r4, #1
  401ec8:	0624      	lsls	r4, r4, #24
  401eca:	0e24      	lsrs	r4, r4, #24
  401ecc:	1c6d      	adds	r5, r5, #1
  401ece:	062d      	lsls	r5, r5, #24
  401ed0:	0e2d      	lsrs	r5, r5, #24

00401ed2 <??LCD_WriteStringDecValue_13>:
  401ed2:	aa05      	add	r2, sp, #20
  401ed4:	5d10      	ldrb	r0, [r2, r4]
  401ed6:	2800      	cmp	r0, #0
  401ed8:	d053      	beq.n	401f82 <??LCD_WriteStringDecValue_15>
  401eda:	2d15      	cmp	r5, #21
  401edc:	d3f2      	bcc.n	401ec4 <??LCD_WriteStringDecValue_14>
  401ede:	e050      	b.n	401f82 <??LCD_WriteStringDecValue_15>

00401ee0 <??LCD_WriteStringDecValue_1>:
  401ee0:	a814      	add	r0, sp, #80
  401ee2:	7800      	ldrb	r0, [r0, #0]
  401ee4:	2800      	cmp	r0, #0
  401ee6:	a90e      	add	r1, sp, #56
  401ee8:	d151      	bne.n	401f8e <??LCD_WriteStringDecValue_16>

00401eea <??LCD_WriteStringDecValue_17>:
  401eea:	a812      	add	r0, sp, #72
  401eec:	8800      	ldrh	r0, [r0, #0]
  401eee:	1102      	asrs	r2, r0, #4
  401ef0:	0112      	lsls	r2, r2, #4
  401ef2:	1a80      	subs	r0, r0, r2
  401ef4:	4a2b      	ldr	r2, [pc, #172]	(401fa4 <??LCD_WriteStringDecValue_0+0x8>)
  401ef6:	1810      	adds	r0, r2, r0
  401ef8:	7d00      	ldrb	r0, [r0, #20]
  401efa:	5508      	strb	r0, [r1, r4]
  401efc:	a812      	add	r0, sp, #72
  401efe:	aa12      	add	r2, sp, #72
  401f00:	8812      	ldrh	r2, [r2, #0]
  401f02:	0912      	lsrs	r2, r2, #4
  401f04:	8002      	strh	r2, [r0, #0]
  401f06:	1c64      	adds	r4, r4, #1
  401f08:	0624      	lsls	r4, r4, #24
  401f0a:	0e24      	lsrs	r4, r4, #24
  401f0c:	2a10      	cmp	r2, #16
  401f0e:	d2ec      	bcs.n	401eea <??LCD_WriteStringDecValue_17>
  401f10:	0010      	lsls	r0, r2, #0
  401f12:	4a24      	ldr	r2, [pc, #144]	(401fa4 <??LCD_WriteStringDecValue_0+0x8>)
  401f14:	1810      	adds	r0, r2, r0
  401f16:	7d00      	ldrb	r0, [r0, #20]
  401f18:	5508      	strb	r0, [r1, r4]
  401f1a:	a80c      	add	r0, sp, #48
  401f1c:	e006      	b.n	401f2c <??LCD_WriteStringDecValue_18>

00401f1e <??LCD_WriteStringDecValue_19>:
  401f1e:	5d0b      	ldrb	r3, [r1, r4]
  401f20:	5543      	strb	r3, [r0, r5]
  401f22:	1e64      	subs	r4, r4, #1
  401f24:	0624      	lsls	r4, r4, #24
  401f26:	0e24      	lsrs	r4, r4, #24
  401f28:	0615      	lsls	r5, r2, #24
  401f2a:	0e2d      	lsrs	r5, r5, #24

00401f2c <??LCD_WriteStringDecValue_18>:
  401f2c:	1c6a      	adds	r2, r5, #1
  401f2e:	0023      	lsls	r3, r4, #0
  401f30:	d1f5      	bne.n	401f1e <??LCD_WriteStringDecValue_19>
  401f32:	7809      	ldrb	r1, [r1, #0]
  401f34:	5541      	strb	r1, [r0, r5]
  401f36:	0612      	lsls	r2, r2, #24
  401f38:	0e12      	lsrs	r2, r2, #24
  401f3a:	2100      	movs	r1, #0
  401f3c:	5481      	strb	r1, [r0, r2]
  401f3e:	2500      	movs	r5, #0
  401f40:	a907      	add	r1, sp, #28
  401f42:	e006      	b.n	401f52 <??LCD_WriteStringDecValue_20>

00401f44 <??LCD_WriteStringDecValue_21>:
  401f44:	554a      	strb	r2, [r1, r5]
  401f46:	1c6d      	adds	r5, r5, #1
  401f48:	062d      	lsls	r5, r5, #24
  401f4a:	0e2d      	lsrs	r5, r5, #24
  401f4c:	9a11      	ldr	r2, [sp, #68]
  401f4e:	1c52      	adds	r2, r2, #1
  401f50:	9211      	str	r2, [sp, #68]

00401f52 <??LCD_WriteStringDecValue_20>:
  401f52:	9a11      	ldr	r2, [sp, #68]
  401f54:	7812      	ldrb	r2, [r2, #0]
  401f56:	2a00      	cmp	r2, #0
  401f58:	d001      	beq.n	401f5e <??LCD_WriteStringDecValue_22>
  401f5a:	2d15      	cmp	r5, #21
  401f5c:	d3f2      	bcc.n	401f44 <??LCD_WriteStringDecValue_21>

00401f5e <??LCD_WriteStringDecValue_22>:
  401f5e:	2400      	movs	r4, #0
  401f60:	e006      	b.n	401f70 <??LCD_WriteStringDecValue_23>

00401f62 <??LCD_WriteStringDecValue_24>:
  401f62:	554a      	strb	r2, [r1, r5]
  401f64:	1c64      	adds	r4, r4, #1
  401f66:	0624      	lsls	r4, r4, #24
  401f68:	0e24      	lsrs	r4, r4, #24
  401f6a:	1c6d      	adds	r5, r5, #1
  401f6c:	062d      	lsls	r5, r5, #24
  401f6e:	0e2d      	lsrs	r5, r5, #24

00401f70 <??LCD_WriteStringDecValue_23>:
  401f70:	5d02      	ldrb	r2, [r0, r4]
  401f72:	2a00      	cmp	r2, #0
  401f74:	d001      	beq.n	401f7a <??LCD_WriteStringDecValue_25>
  401f76:	2d15      	cmp	r5, #21
  401f78:	d3f3      	bcc.n	401f62 <??LCD_WriteStringDecValue_24>

00401f7a <??LCD_WriteStringDecValue_25>:
  401f7a:	a807      	add	r0, sp, #28
  401f7c:	2100      	movs	r1, #0
  401f7e:	5541      	strb	r1, [r0, r5]
  401f80:	a907      	add	r1, sp, #28

00401f82 <??LCD_WriteStringDecValue_15>:
  401f82:	a813      	add	r0, sp, #76
  401f84:	7800      	ldrb	r0, [r0, #0]
  401f86:	f7ff fe15 	bl	401bb4 <LCD_WriteString_NormalFont>

00401f8a <??LCD_WriteStringDecValue_26>:
  401f8a:	b015      	add	sp, #84
  401f8c:	e190      	b.n	4022b0 <??Subroutine2_0>

00401f8e <??LCD_WriteStringDecValue_16>:
  401f8e:	4906      	ldr	r1, [pc, #24]	(401fa8 <??LCD_WriteStringDecValue_0+0xc>)
  401f90:	a813      	add	r0, sp, #76
  401f92:	7800      	ldrb	r0, [r0, #0]
  401f94:	f7ff fe0e 	bl	401bb4 <LCD_WriteString_NormalFont>
  401f98:	e7f7      	b.n	401f8a <??LCD_WriteStringDecValue_26>
  401f9a:	46c0      	nop			(mov r8, r8)

00401f9c <??LCD_WriteStringDecValue_0>:
  401f9c:	00002710 	.word	0x00002710
  401fa0:	004052a9 	.word	0x004052a9
  401fa4:	00403e04 	.word	0x00403e04
  401fa8:	00403e2c 	.word	0x00403e2c

00401fac <LCD_WriteCommand>:
  401fac:	b510      	push	{r4, lr}
  401fae:	0004      	lsls	r4, r0, #0
  401fb0:	4811      	ldr	r0, [pc, #68]	(401ff8 <??LCD_WriteCommand_0>)
  401fb2:	2100      	movs	r1, #0
  401fb4:	7001      	strb	r1, [r0, #0]
  401fb6:	2101      	movs	r1, #1
  401fb8:	2015      	movs	r0, #21
  401fba:	f406 fa61 	bl	8480 <Gpio_SetPinData>
  401fbe:	22f0      	movs	r2, #240
  401fc0:	21f0      	movs	r1, #240
  401fc2:	2000      	movs	r0, #0
  401fc4:	f406 f9da 	bl	837c <Gpio_SetPortDir>
  401fc8:	220f      	movs	r2, #15
  401fca:	210f      	movs	r1, #15
  401fcc:	2001      	movs	r0, #1
  401fce:	f406 f9d5 	bl	837c <Gpio_SetPortDir>
  401fd2:	2101      	movs	r1, #1
  401fd4:	2014      	movs	r0, #20
  401fd6:	f406 fa53 	bl	8480 <Gpio_SetPinData>
  401fda:	2101      	movs	r1, #1
  401fdc:	2009      	movs	r0, #9
  401fde:	f406 fa4f 	bl	8480 <Gpio_SetPinData>
  401fe2:	22f0      	movs	r2, #240
  401fe4:	0121      	lsls	r1, r4, #4
  401fe6:	2000      	movs	r0, #0
  401fe8:	f406 fa24 	bl	8434 <Gpio_SetPortData>
  401fec:	220f      	movs	r2, #15
  401fee:	0921      	lsrs	r1, r4, #4
  401ff0:	2001      	movs	r0, #1
  401ff2:	f406 fa1f 	bl	8434 <Gpio_SetPortData>
  401ff6:	e025      	b.n	402044 <?Subroutine0>

00401ff8 <??LCD_WriteCommand_0>:
  401ff8:	004052a9 	.word	0x004052a9

00401ffc <LCD_WriteData>:
  401ffc:	b510      	push	{r4, lr}
  401ffe:	0004      	lsls	r4, r0, #0
  402000:	481f      	ldr	r0, [pc, #124]	(402080 <??DataTable6>)
  402002:	2100      	movs	r1, #0
  402004:	7001      	strb	r1, [r0, #0]
  402006:	2015      	movs	r0, #21
  402008:	f406 fa3a 	bl	8480 <Gpio_SetPinData>
  40200c:	2101      	movs	r1, #1
  40200e:	2014      	movs	r0, #20
  402010:	f406 fa36 	bl	8480 <Gpio_SetPinData>
  402014:	22f0      	movs	r2, #240
  402016:	21f0      	movs	r1, #240
  402018:	2000      	movs	r0, #0
  40201a:	f406 f9af 	bl	837c <Gpio_SetPortDir>
  40201e:	220f      	movs	r2, #15
  402020:	210f      	movs	r1, #15
  402022:	2001      	movs	r0, #1
  402024:	f406 f9aa 	bl	837c <Gpio_SetPortDir>
  402028:	22f0      	movs	r2, #240
  40202a:	0121      	lsls	r1, r4, #4
  40202c:	2000      	movs	r0, #0
  40202e:	f406 fa01 	bl	8434 <Gpio_SetPortData>
  402032:	220f      	movs	r2, #15
  402034:	0921      	lsrs	r1, r4, #4
  402036:	2001      	movs	r0, #1
  402038:	f406 f9fc 	bl	8434 <Gpio_SetPortData>
  40203c:	2101      	movs	r1, #1
  40203e:	2009      	movs	r0, #9
  402040:	f406 fa1e 	bl	8480 <Gpio_SetPinData>

00402044 <?Subroutine0>:
  402044:	2001      	movs	r0, #1
  402046:	f001 feaf 	bl	403da8 <DelayUs>
  40204a:	2100      	movs	r1, #0
  40204c:	2009      	movs	r0, #9
  40204e:	f406 fa17 	bl	8480 <Gpio_SetPinData>
  402052:	2100      	movs	r1, #0
  402054:	2014      	movs	r0, #20
  402056:	f406 fa13 	bl	8480 <Gpio_SetPinData>
  40205a:	22f0      	movs	r2, #240
  40205c:	21f0      	movs	r1, #240
  40205e:	43c9      	mvns	r1, r1
  402060:	2000      	movs	r0, #0
  402062:	f406 f98b 	bl	837c <Gpio_SetPortDir>
  402066:	220f      	movs	r2, #15
  402068:	210f      	movs	r1, #15
  40206a:	43c9      	mvns	r1, r1
  40206c:	2001      	movs	r0, #1
  40206e:	f406 f985 	bl	837c <Gpio_SetPortDir>
  402072:	2001      	movs	r0, #1
  402074:	f001 fe98 	bl	403da8 <DelayUs>
  402078:	9801      	ldr	r0, [sp, #4]
  40207a:	bc10      	pop	{r4}
  40207c:	b001      	add	sp, #4
  40207e:	4700      	bx	r0

00402080 <??DataTable6>:
  402080:	004052a9 	.word	0x004052a9

00402084 <LCD_SetFont>:
  402084:	4905      	ldr	r1, [pc, #20]	(40209c <??LCD_SetFont_0>)
  402086:	2200      	movs	r2, #0
  402088:	700a      	strb	r2, [r1, #0]
  40208a:	2802      	cmp	r0, #2
  40208c:	d203      	bcs.n	402096 <??LCD_SetFont_1>
  40208e:	4904      	ldr	r1, [pc, #16]	(4020a0 <??LCD_SetFont_0+0x4>)
  402090:	7008      	strb	r0, [r1, #0]
  402092:	2001      	movs	r0, #1
  402094:	4770      	bx	lr

00402096 <??LCD_SetFont_1>:
  402096:	2000      	movs	r0, #0
  402098:	4770      	bx	lr
  40209a:	46c0      	nop			(mov r8, r8)

0040209c <??LCD_SetFont_0>:
  40209c:	004052a9 	.word	0x004052a9
  4020a0:	004052bd 	.word	0x004052bd

004020a4 <LCD_SetBacklight>:
  4020a4:	b580      	push	{r7, lr}
  4020a6:	1e41      	subs	r1, r0, #1
  4020a8:	4189      	sbcs	r1, r1
  4020aa:	43c9      	mvns	r1, r1
  4020ac:	0fc9      	lsrs	r1, r1, #31
  4020ae:	200a      	movs	r0, #10
  4020b0:	f406 f9e6 	bl	8480 <Gpio_SetPinData>
  4020b4:	9801      	ldr	r0, [sp, #4]
  4020b6:	b002      	add	sp, #8
  4020b8:	4700      	bx	r0

004020ba <LCD_WritePixel>:
  4020ba:	b5f0      	push	{r4, r5, r6, r7, lr}
  4020bc:	b083      	sub	sp, #12
  4020be:	0005      	lsls	r5, r0, #0
  4020c0:	0017      	lsls	r7, r2, #0
  4020c2:	2d80      	cmp	r5, #128
  4020c4:	d300      	bcc.n	4020c8 <LCD_WritePixel+0xe>
  4020c6:	e08b      	b.n	4021e0 <??LCD_WritePixel_0>
  4020c8:	2940      	cmp	r1, #64
  4020ca:	d300      	bcc.n	4020ce <LCD_WritePixel+0x14>
  4020cc:	e088      	b.n	4021e0 <??LCD_WritePixel_0>
  4020ce:	08c8      	lsrs	r0, r1, #3
  4020d0:	0006      	lsls	r6, r0, #0
  4020d2:	00c0      	lsls	r0, r0, #3
  4020d4:	1a0c      	subs	r4, r1, r0
  4020d6:	2040      	movs	r0, #64
  4020d8:	f7ff ff68 	bl	401fac <LCD_WriteCommand>
  4020dc:	4668      	mov	r0, sp
  4020de:	3e50      	subs	r6, #80
  4020e0:	7046      	strb	r6, [r0, #1]
  4020e2:	7840      	ldrb	r0, [r0, #1]
  4020e4:	f7ff ff62 	bl	401fac <LCD_WriteCommand>
  4020e8:	4668      	mov	r0, sp
  4020ea:	0929      	lsrs	r1, r5, #4
  4020ec:	2210      	movs	r2, #16
  4020ee:	430a      	orrs	r2, r1
  4020f0:	7002      	strb	r2, [r0, #0]
  4020f2:	0010      	lsls	r0, r2, #0
  4020f4:	f7ff ff5a 	bl	401fac <LCD_WriteCommand>
  4020f8:	072e      	lsls	r6, r5, #28
  4020fa:	0f36      	lsrs	r6, r6, #28
  4020fc:	0030      	lsls	r0, r6, #0
  4020fe:	f7ff ff55 	bl	401fac <LCD_WriteCommand>
  402102:	2100      	movs	r1, #0
  402104:	2015      	movs	r0, #21
  402106:	f406 f9bb 	bl	8480 <Gpio_SetPinData>
  40210a:	2101      	movs	r1, #1
  40210c:	2014      	movs	r0, #20
  40210e:	f406 f9b7 	bl	8480 <Gpio_SetPinData>
  402112:	2001      	movs	r0, #1
  402114:	f001 fe48 	bl	403da8 <DelayUs>
  402118:	2101      	movs	r1, #1
  40211a:	2008      	movs	r0, #8
  40211c:	f406 f9b0 	bl	8480 <Gpio_SetPinData>
  402120:	2001      	movs	r0, #1
  402122:	f001 fe41 	bl	403da8 <DelayUs>
  402126:	a902      	add	r1, sp, #8
  402128:	2000      	movs	r0, #0
  40212a:	f406 f999 	bl	8460 <Gpio_GetPortData>
  40212e:	a902      	add	r1, sp, #8
  402130:	2001      	movs	r0, #1
  402132:	f406 f995 	bl	8460 <Gpio_GetPortData>
  402136:	2100      	movs	r1, #0
  402138:	2008      	movs	r0, #8
  40213a:	f406 f9a1 	bl	8480 <Gpio_SetPinData>
  40213e:	2100      	movs	r1, #0
  402140:	2014      	movs	r0, #20
  402142:	f406 f99d 	bl	8480 <Gpio_SetPinData>
  402146:	2001      	movs	r0, #1
  402148:	f001 fe2e 	bl	403da8 <DelayUs>
  40214c:	2100      	movs	r1, #0
  40214e:	2015      	movs	r0, #21
  402150:	f406 f996 	bl	8480 <Gpio_SetPinData>
  402154:	2101      	movs	r1, #1
  402156:	2014      	movs	r0, #20
  402158:	f406 f992 	bl	8480 <Gpio_SetPinData>
  40215c:	2001      	movs	r0, #1
  40215e:	f001 fe23 	bl	403da8 <DelayUs>
  402162:	2101      	movs	r1, #1
  402164:	2008      	movs	r0, #8
  402166:	f406 f98b 	bl	8480 <Gpio_SetPinData>
  40216a:	2001      	movs	r0, #1
  40216c:	f001 fe1c 	bl	403da8 <DelayUs>
  402170:	a901      	add	r1, sp, #4
  402172:	2000      	movs	r0, #0
  402174:	f406 f974 	bl	8460 <Gpio_GetPortData>
  402178:	9801      	ldr	r0, [sp, #4]
  40217a:	21f0      	movs	r1, #240
  40217c:	4001      	ands	r1, r0
  40217e:	090d      	lsrs	r5, r1, #4
  402180:	a901      	add	r1, sp, #4
  402182:	2001      	movs	r0, #1
  402184:	f406 f96c 	bl	8460 <Gpio_GetPortData>
  402188:	2100      	movs	r1, #0
  40218a:	2008      	movs	r0, #8
  40218c:	f406 f978 	bl	8480 <Gpio_SetPinData>
  402190:	2100      	movs	r1, #0
  402192:	2014      	movs	r0, #20
  402194:	f406 f974 	bl	8480 <Gpio_SetPinData>
  402198:	2001      	movs	r0, #1
  40219a:	f001 fe05 	bl	403da8 <DelayUs>
  40219e:	9801      	ldr	r0, [sp, #4]
  4021a0:	0100      	lsls	r0, r0, #4
  4021a2:	4328      	orrs	r0, r5
  4021a4:	0605      	lsls	r5, r0, #24
  4021a6:	0e2d      	lsrs	r5, r5, #24
  4021a8:	2040      	movs	r0, #64
  4021aa:	f7ff feff 	bl	401fac <LCD_WriteCommand>
  4021ae:	4668      	mov	r0, sp
  4021b0:	7840      	ldrb	r0, [r0, #1]
  4021b2:	f7ff fefb 	bl	401fac <LCD_WriteCommand>
  4021b6:	4668      	mov	r0, sp
  4021b8:	7800      	ldrb	r0, [r0, #0]
  4021ba:	f7ff fef7 	bl	401fac <LCD_WriteCommand>
  4021be:	0030      	lsls	r0, r6, #0
  4021c0:	f7ff fef4 	bl	401fac <LCD_WriteCommand>
  4021c4:	2001      	movs	r0, #1
  4021c6:	40a0      	lsls	r0, r4
  4021c8:	2f01      	cmp	r7, #1
  4021ca:	d105      	bne.n	4021d8 <??LCD_WritePixel_1>
  4021cc:	4328      	orrs	r0, r5
  4021ce:	0600      	lsls	r0, r0, #24
  4021d0:	0e00      	lsrs	r0, r0, #24
  4021d2:	f7ff ff13 	bl	401ffc <LCD_WriteData>
  4021d6:	e003      	b.n	4021e0 <??LCD_WritePixel_0>

004021d8 <??LCD_WritePixel_1>:
  4021d8:	4385      	bics	r5, r0
  4021da:	0028      	lsls	r0, r5, #0
  4021dc:	f7ff ff0e 	bl	401ffc <LCD_WriteData>

004021e0 <??LCD_WritePixel_0>:
  4021e0:	e064      	b.n	4022ac <??LCD_WriteCharacter_1>
	...

004021e4 <LCD_WriteCharacter>:
  4021e4:	b5f2      	push	{r1, r4, r5, r6, r7, lr}
  4021e6:	b082      	sub	sp, #8
  4021e8:	0014      	lsls	r4, r2, #0
  4021ea:	4669      	mov	r1, sp
  4021ec:	7a09      	ldrb	r1, [r1, #8]
  4021ee:	2980      	cmp	r1, #128
  4021f0:	d301      	bcc.n	4021f6 <??LCD_WriteCharacter_0>
  4021f2:	2c40      	cmp	r4, #64
  4021f4:	d25a      	bcs.n	4022ac <??LCD_WriteCharacter_1>

004021f6 <??LCD_WriteCharacter_0>:
  4021f6:	3820      	subs	r0, #32
  4021f8:	0400      	lsls	r0, r0, #16
  4021fa:	4934      	ldr	r1, [pc, #208]	(4022cc <??DataTable9>)
  4021fc:	7809      	ldrb	r1, [r1, #0]
  4021fe:	004a      	lsls	r2, r1, #1
  402200:	1851      	adds	r1, r2, r1
  402202:	0089      	lsls	r1, r1, #2
  402204:	4a2c      	ldr	r2, [pc, #176]	(4022b8 <??Subroutine2_1>)
  402206:	1851      	adds	r1, r2, r1
  402208:	7a0d      	ldrb	r5, [r1, #8]
  40220a:	0bc7      	lsrs	r7, r0, #15
  40220c:	4668      	mov	r0, sp
  40220e:	7a00      	ldrb	r0, [r0, #8]
  402210:	0900      	lsrs	r0, r0, #4
  402212:	2110      	movs	r1, #16
  402214:	4301      	orrs	r1, r0
  402216:	4668      	mov	r0, sp
  402218:	7001      	strb	r1, [r0, #0]
  40221a:	e024      	b.n	402266 <??LCD_WriteCharacter_2>

0040221c <??LCD_WriteCharacter_3>:
  40221c:	19a9      	adds	r1, r5, r6
  40221e:	6802      	ldr	r2, [r0, #0]
  402220:	5bd2      	ldrh	r2, [r2, r7]
  402222:	435a      	muls	r2, r3
  402224:	1889      	adds	r1, r1, r2
  402226:	6840      	ldr	r0, [r0, #4]
  402228:	5c40      	ldrb	r0, [r0, r1]
  40222a:	f7ff fee7 	bl	401ffc <LCD_WriteData>
  40222e:	4827      	ldr	r0, [pc, #156]	(4022cc <??DataTable9>)
  402230:	7800      	ldrb	r0, [r0, #0]
  402232:	0041      	lsls	r1, r0, #1
  402234:	1808      	adds	r0, r1, r0
  402236:	0080      	lsls	r0, r0, #2
  402238:	4920      	ldr	r1, [pc, #128]	(4022bc <??Subroutine2_1+0x4>)
  40223a:	1808      	adds	r0, r1, r0
  40223c:	7a00      	ldrb	r0, [r0, #8]
  40223e:	1836      	adds	r6, r6, r0
  402240:	0636      	lsls	r6, r6, #24
  402242:	0e36      	lsrs	r6, r6, #24

00402244 <??LCD_WriteCharacter_4>:
  402244:	4821      	ldr	r0, [pc, #132]	(4022cc <??DataTable9>)
  402246:	7800      	ldrb	r0, [r0, #0]
  402248:	0041      	lsls	r1, r0, #1
  40224a:	1808      	adds	r0, r1, r0
  40224c:	0080      	lsls	r0, r0, #2
  40224e:	491c      	ldr	r1, [pc, #112]	(4022c0 <??Subroutine2_1+0x8>)
  402250:	1808      	adds	r0, r1, r0
  402252:	6801      	ldr	r1, [r0, #0]
  402254:	19ca      	adds	r2, r1, r7
  402256:	8853      	ldrh	r3, [r2, #2]
  402258:	8812      	ldrh	r2, [r2, #0]
  40225a:	1a9a      	subs	r2, r3, r2
  40225c:	7a03      	ldrb	r3, [r0, #8]
  40225e:	435a      	muls	r2, r3
  402260:	4296      	cmp	r6, r2
  402262:	dbdb      	blt.n	40221c <??LCD_WriteCharacter_3>
  402264:	3408      	adds	r4, #8

00402266 <??LCD_WriteCharacter_2>:
  402266:	0028      	lsls	r0, r5, #0
  402268:	d020      	beq.n	4022ac <??LCD_WriteCharacter_1>
  40226a:	1e6d      	subs	r5, r5, #1
  40226c:	062d      	lsls	r5, r5, #24
  40226e:	0e2d      	lsrs	r5, r5, #24
  402270:	2040      	movs	r0, #64
  402272:	f7ff fe9b 	bl	401fac <LCD_WriteCommand>
  402276:	0626      	lsls	r6, r4, #24
  402278:	0ef6      	lsrs	r6, r6, #27
  40227a:	0030      	lsls	r0, r6, #0
  40227c:	3850      	subs	r0, #80
  40227e:	0600      	lsls	r0, r0, #24
  402280:	0e00      	lsrs	r0, r0, #24
  402282:	f7ff fe93 	bl	401fac <LCD_WriteCommand>
  402286:	4668      	mov	r0, sp
  402288:	7800      	ldrb	r0, [r0, #0]
  40228a:	f7ff fe8f 	bl	401fac <LCD_WriteCommand>
  40228e:	4668      	mov	r0, sp
  402290:	7a00      	ldrb	r0, [r0, #8]
  402292:	0700      	lsls	r0, r0, #28
  402294:	0f00      	lsrs	r0, r0, #28
  402296:	f7ff fe89 	bl	401fac <LCD_WriteCommand>
  40229a:	480a      	ldr	r0, [pc, #40]	(4022c4 <??Subroutine2_1+0xc>)
  40229c:	7800      	ldrb	r0, [r0, #0]
  40229e:	2101      	movs	r1, #1
  4022a0:	40b1      	lsls	r1, r6
  4022a2:	4301      	orrs	r1, r0
  4022a4:	4808      	ldr	r0, [pc, #32]	(4022c8 <??Subroutine2_1+0x10>)
  4022a6:	7001      	strb	r1, [r0, #0]
  4022a8:	2600      	movs	r6, #0
  4022aa:	e7cb      	b.n	402244 <??LCD_WriteCharacter_4>

004022ac <??LCD_WriteCharacter_1>:
  4022ac:	b003      	add	sp, #12
  4022ae:	46c0      	nop			(mov r8, r8)

004022b0 <??Subroutine2_0>:
  4022b0:	9804      	ldr	r0, [sp, #16]
  4022b2:	bcf0      	pop	{r4, r5, r6, r7}
  4022b4:	b001      	add	sp, #4
  4022b6:	4700      	bx	r0

004022b8 <??Subroutine2_1>:
  4022b8:	00403eec 	.word	0x00403eec
  4022bc:	00403eec 	.word	0x00403eec
  4022c0:	00403eec 	.word	0x00403eec
  4022c4:	004052b3 	.word	0x004052b3
  4022c8:	004052b3 	.word	0x004052b3

004022cc <??DataTable9>:
  4022cc:	004052bd 	.word	0x004052bd

004022d0 <LCD_ClearPage>:
  4022d0:	b570      	push	{r4, r5, r6, lr}
  4022d2:	0004      	lsls	r4, r0, #0
  4022d4:	000d      	lsls	r5, r1, #0
  4022d6:	0016      	lsls	r6, r2, #0
  4022d8:	2040      	movs	r0, #64
  4022da:	f7ff fe67 	bl	401fac <LCD_WriteCommand>
  4022de:	08f0      	lsrs	r0, r6, #3
  4022e0:	3850      	subs	r0, #80
  4022e2:	0600      	lsls	r0, r0, #24
  4022e4:	0e00      	lsrs	r0, r0, #24
  4022e6:	f7ff fe61 	bl	401fac <LCD_WriteCommand>
  4022ea:	0921      	lsrs	r1, r4, #4
  4022ec:	2010      	movs	r0, #16
  4022ee:	4308      	orrs	r0, r1
  4022f0:	f7ff fe5c 	bl	401fac <LCD_WriteCommand>
  4022f4:	0720      	lsls	r0, r4, #28
  4022f6:	0f00      	lsrs	r0, r0, #28
  4022f8:	f7ff fe58 	bl	401fac <LCD_WriteCommand>
  4022fc:	e005      	b.n	40230a <??LCD_ClearPage_0>

004022fe <??LCD_ClearPage_1>:
  4022fe:	2000      	movs	r0, #0
  402300:	f7ff fe7c 	bl	401ffc <LCD_WriteData>
  402304:	1c64      	adds	r4, r4, #1
  402306:	0624      	lsls	r4, r4, #24
  402308:	0e24      	lsrs	r4, r4, #24

0040230a <??LCD_ClearPage_0>:
  40230a:	42ac      	cmp	r4, r5
  40230c:	d3f7      	bcc.n	4022fe <??LCD_ClearPage_1>
  40230e:	9803      	ldr	r0, [sp, #12]
  402310:	bc70      	pop	{r4, r5, r6}
  402312:	b001      	add	sp, #4
  402314:	4700      	bx	r0
	...

00402318 <LCD_ClearLine>:
  402318:	b510      	push	{r4, lr}
  40231a:	2808      	cmp	r0, #8
  40231c:	d228      	bcs.n	402370 <??LCD_ClearLine_0>
  40231e:	4c15      	ldr	r4, [pc, #84]	(402374 <??LCD_ClearLine_1>)
  402320:	7f21      	ldrb	r1, [r4, #28]
  402322:	2900      	cmp	r1, #0
  402324:	d009      	beq.n	40233a <??LCD_ClearLine_2>
  402326:	0041      	lsls	r1, r0, #1
  402328:	1809      	adds	r1, r1, r0
  40232a:	1861      	adds	r1, r4, r1
  40232c:	790a      	ldrb	r2, [r1, #4]
  40232e:	7022      	strb	r2, [r4, #0]
  402330:	2280      	movs	r2, #128
  402332:	7062      	strb	r2, [r4, #1]
  402334:	7949      	ldrb	r1, [r1, #5]
  402336:	70a1      	strb	r1, [r4, #2]
  402338:	70e0      	strb	r0, [r4, #3]

0040233a <??LCD_ClearLine_2>:
  40233a:	78a2      	ldrb	r2, [r4, #2]
  40233c:	7861      	ldrb	r1, [r4, #1]
  40233e:	7820      	ldrb	r0, [r4, #0]
  402340:	1a0b      	subs	r3, r1, r0
  402342:	2b20      	cmp	r3, #32
  402344:	db0c      	blt.n	402360 <??LCD_ClearLine_3>
  402346:	2100      	movs	r1, #0
  402348:	7721      	strb	r1, [r4, #28]
  40234a:	0001      	lsls	r1, r0, #0
  40234c:	3120      	adds	r1, #32
  40234e:	0609      	lsls	r1, r1, #24
  402350:	0e09      	lsrs	r1, r1, #24
  402352:	f7ff ffbd 	bl	4022d0 <LCD_ClearPage>
  402356:	7820      	ldrb	r0, [r4, #0]
  402358:	3020      	adds	r0, #32
  40235a:	7020      	strb	r0, [r4, #0]
  40235c:	2000      	movs	r0, #0
  40235e:	e003      	b.n	402368 <??LCD_ClearLine_4>

00402360 <??LCD_ClearLine_3>:
  402360:	f7ff ffb6 	bl	4022d0 <LCD_ClearPage>
  402364:	2001      	movs	r0, #1
  402366:	7720      	strb	r0, [r4, #28]

00402368 <??LCD_ClearLine_4>:
  402368:	9901      	ldr	r1, [sp, #4]
  40236a:	bc10      	pop	{r4}
  40236c:	b001      	add	sp, #4
  40236e:	4708      	bx	r1

00402370 <??LCD_ClearLine_0>:
  402370:	20ff      	movs	r0, #255
  402372:	e7f9      	b.n	402368 <??LCD_ClearLine_4>

00402374 <??LCD_ClearLine_1>:
  402374:	00405484 	.word	0x00405484

00402378 <execute_current_message_callback>:
  402378:	b580      	push	{r7, lr}
  40237a:	488d      	ldr	r0, [pc, #564]	(4025b0 <??DataTable9>)
  40237c:	7841      	ldrb	r1, [r0, #1]
  40237e:	0089      	lsls	r1, r1, #2
  402380:	1840      	adds	r0, r0, r1
  402382:	6ac0      	ldr	r0, [r0, #44]
  402384:	2800      	cmp	r0, #0
  402386:	d005      	beq.n	402394 <??execute_current_message_callback_0>
  402388:	68c1      	ldr	r1, [r0, #12]
  40238a:	2900      	cmp	r1, #0
  40238c:	d002      	beq.n	402394 <??execute_current_message_callback_0>
  40238e:	0008      	lsls	r0, r1, #0
  402390:	f001 fdd5 	bl	403f3e <__iar_via_R0>

00402394 <??execute_current_message_callback_0>:
  402394:	9801      	ldr	r0, [sp, #4]
  402396:	b002      	add	sp, #8
  402398:	4700      	bx	r0

0040239a <handle_new_message>:
  40239a:	b430      	push	{r4, r5}
  40239c:	4a84      	ldr	r2, [pc, #528]	(4025b0 <??DataTable9>)
  40239e:	7893      	ldrb	r3, [r2, #2]
  4023a0:	009c      	lsls	r4, r3, #2
  4023a2:	1914      	adds	r4, r2, r4
  4023a4:	6ae5      	ldr	r5, [r4, #44]
  4023a6:	2d00      	cmp	r5, #0
  4023a8:	d002      	beq.n	4023b0 <??handle_new_message_0>
  4023aa:	2002      	movs	r0, #2
  4023ac:	bc30      	pop	{r4, r5}
  4023ae:	4770      	bx	lr

004023b0 <??handle_new_message_0>:
  4023b0:	7805      	ldrb	r5, [r0, #0]
  4023b2:	076d      	lsls	r5, r5, #29
  4023b4:	0f6d      	lsrs	r5, r5, #29
  4023b6:	7005      	strb	r5, [r0, #0]
  4023b8:	62e0      	str	r0, [r4, #44]
  4023ba:	63e1      	str	r1, [r4, #60]
  4023bc:	2b03      	cmp	r3, #3
  4023be:	d101      	bne.n	4023c4 <??handle_new_message_1>
  4023c0:	2300      	movs	r3, #0
  4023c2:	e000      	b.n	4023c6 <??handle_new_message_2>

004023c4 <??handle_new_message_1>:
  4023c4:	1c5b      	adds	r3, r3, #1

004023c6 <??handle_new_message_2>:
  4023c6:	7093      	strb	r3, [r2, #2]
  4023c8:	2000      	movs	r0, #0
  4023ca:	bc30      	pop	{r4, r5}
  4023cc:	4770      	bx	lr

004023ce <release_current_message>:
  4023ce:	4878      	ldr	r0, [pc, #480]	(4025b0 <??DataTable9>)
  4023d0:	7841      	ldrb	r1, [r0, #1]
  4023d2:	008a      	lsls	r2, r1, #2
  4023d4:	1882      	adds	r2, r0, r2
  4023d6:	6ad3      	ldr	r3, [r2, #44]
  4023d8:	2b00      	cmp	r3, #0
  4023da:	d008      	beq.n	4023ee <??release_current_message_0>
  4023dc:	2300      	movs	r3, #0
  4023de:	62d3      	str	r3, [r2, #44]
  4023e0:	63d3      	str	r3, [r2, #60]
  4023e2:	2903      	cmp	r1, #3
  4023e4:	d101      	bne.n	4023ea <??release_current_message_1>
  4023e6:	2100      	movs	r1, #0
  4023e8:	e000      	b.n	4023ec <??release_current_message_2>

004023ea <??release_current_message_1>:
  4023ea:	1c49      	adds	r1, r1, #1

004023ec <??release_current_message_2>:
  4023ec:	7041      	strb	r1, [r0, #1]

004023ee <??release_current_message_0>:
  4023ee:	2000      	movs	r0, #0
  4023f0:	4770      	bx	lr
	...

004023f4 <radio_manager_init>:
  4023f4:	2000      	movs	r0, #0
  4023f6:	496e      	ldr	r1, [pc, #440]	(4025b0 <??DataTable9>)
  4023f8:	62c8      	str	r0, [r1, #44]
  4023fa:	63c8      	str	r0, [r1, #60]
  4023fc:	6308      	str	r0, [r1, #48]
  4023fe:	6408      	str	r0, [r1, #64]
  402400:	6348      	str	r0, [r1, #52]
  402402:	6448      	str	r0, [r1, #68]
  402404:	6388      	str	r0, [r1, #56]
  402406:	6488      	str	r0, [r1, #72]
  402408:	7048      	strb	r0, [r1, #1]
  40240a:	7088      	strb	r0, [r1, #2]
  40240c:	6508      	str	r0, [r1, #80]
  40240e:	70c8      	strb	r0, [r1, #3]
  402410:	000a      	lsls	r2, r1, #0
  402412:	325c      	adds	r2, #92
  402414:	60ca      	str	r2, [r1, #12]
  402416:	6148      	str	r0, [r1, #20]
  402418:	201a      	movs	r0, #26
  40241a:	7208      	strb	r0, [r1, #8]
  40241c:	4801      	ldr	r0, [pc, #4]	(402424 <??radio_manager_init_0>)
  40241e:	8508      	strh	r0, [r1, #40]
  402420:	2000      	movs	r0, #0
  402422:	4770      	bx	lr

00402424 <??radio_manager_init_0>:
  402424:	0000ffff 	.word	0x0000ffff

00402428 <process_radio_msg>:
  402428:	b510      	push	{r4, lr}
  40242a:	4c61      	ldr	r4, [pc, #388]	(4025b0 <??DataTable9>)
  40242c:	7860      	ldrb	r0, [r4, #1]
  40242e:	0080      	lsls	r0, r0, #2
  402430:	1820      	adds	r0, r4, r0
  402432:	6ac0      	ldr	r0, [r0, #44]
  402434:	2800      	cmp	r0, #0
  402436:	d00b      	beq.n	402450 <??process_radio_msg_0>
  402438:	2107      	movs	r1, #7
  40243a:	7802      	ldrb	r2, [r0, #0]
  40243c:	400a      	ands	r2, r1
  40243e:	2a04      	cmp	r2, #4
  402440:	d206      	bcs.n	402450 <??process_radio_msg_0>
  402442:	7800      	ldrb	r0, [r0, #0]
  402444:	4001      	ands	r1, r0
  402446:	0088      	lsls	r0, r1, #2
  402448:	4904      	ldr	r1, [pc, #16]	(40245c <??process_radio_msg_1>)
  40244a:	5808      	ldr	r0, [r1, r0]
  40244c:	f001 fd77 	bl	403f3e <__iar_via_R0>

00402450 <??process_radio_msg_0>:
  402450:	78e0      	ldrb	r0, [r4, #3]
  402452:	2801      	cmp	r0, #1
  402454:	d101      	bne.n	40245a <??process_radio_msg_2>
  402456:	f000 fb49 	bl	402aec <process_scan_req>

0040245a <??process_radio_msg_2>:
  40245a:	e335      	b.n	402ac8 <?Subroutine0>

0040245c <??process_radio_msg_1>:
  40245c:	00403f04 	.word	0x00403f04

00402460 <process_tx_msg>:
  402460:	b538      	push	{r3, r4, r5, lr}
  402462:	4c53      	ldr	r4, [pc, #332]	(4025b0 <??DataTable9>)
  402464:	7860      	ldrb	r0, [r4, #1]
  402466:	0080      	lsls	r0, r0, #2
  402468:	1820      	adds	r0, r4, r0
  40246a:	6ac0      	ldr	r0, [r0, #44]
  40246c:	7801      	ldrb	r1, [r0, #0]
  40246e:	08c9      	lsrs	r1, r1, #3
  402470:	d006      	beq.n	402480 <??process_tx_msg_0>
  402472:	1e49      	subs	r1, r1, #1
  402474:	d01a      	beq.n	4024ac <??process_tx_msg_1>
  402476:	1e49      	subs	r1, r1, #1
  402478:	d029      	beq.n	4024ce <??process_tx_msg_2>
  40247a:	1f09      	subs	r1, r1, #4
  40247c:	d05f      	beq.n	40253e <??process_tx_msg_3>
  40247e:	e064      	b.n	40254a <??process_tx_msg_4>

00402480 <??process_tx_msg_0>:
  402480:	2100      	movs	r1, #0
  402482:	6521      	str	r1, [r4, #80]
  402484:	7021      	strb	r1, [r4, #0]
  402486:	7a01      	ldrb	r1, [r0, #8]
  402488:	1d09      	adds	r1, r1, #4
  40248a:	4a4a      	ldr	r2, [pc, #296]	(4025b4 <??DataTable12>)
  40248c:	6011      	str	r1, [r2, #0]
  40248e:	494a      	ldr	r1, [pc, #296]	(4025b8 <??DataTable13>)
  402490:	6842      	ldr	r2, [r0, #4]
  402492:	678a      	str	r2, [r1, #120]
  402494:	0022      	lsls	r2, r4, #0
  402496:	3260      	adds	r2, #96
  402498:	674a      	str	r2, [r1, #116]
  40249a:	4a44      	ldr	r2, [pc, #272]	(4025ac <??process_tx_msg_5>)
  40249c:	600a      	str	r2, [r1, #0]
  40249e:	7801      	ldrb	r1, [r0, #0]
  4024a0:	0749      	lsls	r1, r1, #29
  4024a2:	0f49      	lsrs	r1, r1, #29
  4024a4:	2208      	movs	r2, #8

004024a6 <??process_tx_msg_6>:
  4024a6:	430a      	orrs	r2, r1
  4024a8:	7002      	strb	r2, [r0, #0]
  4024aa:	e050      	b.n	40254e <??process_tx_msg_7>

004024ac <??process_tx_msg_1>:
  4024ac:	6d21      	ldr	r1, [r4, #80]
  4024ae:	07ca      	lsls	r2, r1, #31
  4024b0:	d404      	bmi.n	4024bc <??process_tx_msg_8>
  4024b2:	2220      	movs	r2, #32
  4024b4:	400a      	ands	r2, r1
  4024b6:	0951      	lsrs	r1, r2, #5
  4024b8:	2901      	cmp	r1, #1
  4024ba:	d148      	bne.n	40254e <??process_tx_msg_7>

004024bc <??process_tx_msg_8>:
  4024bc:	6d21      	ldr	r1, [r4, #80]
  4024be:	2201      	movs	r2, #1
  4024c0:	4391      	bics	r1, r2
  4024c2:	6521      	str	r1, [r4, #80]
  4024c4:	7801      	ldrb	r1, [r0, #0]
  4024c6:	0749      	lsls	r1, r1, #29
  4024c8:	0f49      	lsrs	r1, r1, #29
  4024ca:	2210      	movs	r2, #16
  4024cc:	e7eb      	b.n	4024a6 <??process_tx_msg_6>

004024ce <??process_tx_msg_2>:
  4024ce:	2120      	movs	r1, #32
  4024d0:	6d22      	ldr	r2, [r4, #80]
  4024d2:	400a      	ands	r2, r1
  4024d4:	0952      	lsrs	r2, r2, #5
  4024d6:	2a01      	cmp	r2, #1
  4024d8:	d139      	bne.n	40254e <??process_tx_msg_7>
  4024da:	6d22      	ldr	r2, [r4, #80]
  4024dc:	438a      	bics	r2, r1
  4024de:	6522      	str	r2, [r4, #80]
  4024e0:	2207      	movs	r2, #7
  4024e2:	6d23      	ldr	r3, [r4, #80]
  4024e4:	2540      	movs	r5, #64
  4024e6:	401d      	ands	r5, r3
  4024e8:	09ab      	lsrs	r3, r5, #6
  4024ea:	2b01      	cmp	r3, #1
  4024ec:	d108      	bne.n	402500 <??process_tx_msg_9>
  4024ee:	6d23      	ldr	r3, [r4, #80]
  4024f0:	2540      	movs	r5, #64
  4024f2:	43ab      	bics	r3, r5
  4024f4:	6523      	str	r3, [r4, #80]
  4024f6:	7803      	ldrb	r3, [r0, #0]
  4024f8:	401a      	ands	r2, r3
  4024fa:	4311      	orrs	r1, r2
  4024fc:	7001      	strb	r1, [r0, #0]
  4024fe:	e024      	b.n	40254a <??process_tx_msg_4>

00402500 <??process_tx_msg_9>:
  402500:	7821      	ldrb	r1, [r4, #0]
  402502:	2900      	cmp	r1, #0
  402504:	d015      	beq.n	402532 <??process_tx_msg_10>
  402506:	1e49      	subs	r1, r1, #1
  402508:	7021      	strb	r1, [r4, #0]
  40250a:	2100      	movs	r1, #0
  40250c:	6521      	str	r1, [r4, #80]
  40250e:	7a01      	ldrb	r1, [r0, #8]
  402510:	1d09      	adds	r1, r1, #4
  402512:	4b28      	ldr	r3, [pc, #160]	(4025b4 <??DataTable12>)
  402514:	6019      	str	r1, [r3, #0]
  402516:	4928      	ldr	r1, [pc, #160]	(4025b8 <??DataTable13>)
  402518:	6843      	ldr	r3, [r0, #4]
  40251a:	678b      	str	r3, [r1, #120]
  40251c:	0023      	lsls	r3, r4, #0
  40251e:	3360      	adds	r3, #96
  402520:	674b      	str	r3, [r1, #116]
  402522:	4b22      	ldr	r3, [pc, #136]	(4025ac <??process_tx_msg_5>)
  402524:	600b      	str	r3, [r1, #0]
  402526:	7801      	ldrb	r1, [r0, #0]
  402528:	400a      	ands	r2, r1
  40252a:	2108      	movs	r1, #8
  40252c:	4311      	orrs	r1, r2
  40252e:	7001      	strb	r1, [r0, #0]
  402530:	e00d      	b.n	40254e <??process_tx_msg_7>

00402532 <??process_tx_msg_10>:
  402532:	7801      	ldrb	r1, [r0, #0]
  402534:	400a      	ands	r2, r1
  402536:	2128      	movs	r1, #40
  402538:	4311      	orrs	r1, r2
  40253a:	7001      	strb	r1, [r0, #0]
  40253c:	e005      	b.n	40254a <??process_tx_msg_4>

0040253e <??process_tx_msg_3>:
  40253e:	7801      	ldrb	r1, [r0, #0]
  402540:	0749      	lsls	r1, r1, #29
  402542:	0f49      	lsrs	r1, r1, #29
  402544:	2238      	movs	r2, #56
  402546:	430a      	orrs	r2, r1
  402548:	7002      	strb	r2, [r0, #0]

0040254a <??process_tx_msg_4>:
  40254a:	f7ff ff40 	bl	4023ce <release_current_message>

0040254e <??process_tx_msg_7>:
  40254e:	6d20      	ldr	r0, [r4, #80]
  402550:	2180      	movs	r1, #128
  402552:	0089      	lsls	r1, r1, #2
  402554:	4001      	ands	r1, r0
  402556:	0a49      	lsrs	r1, r1, #9
  402558:	2901      	cmp	r1, #1
  40255a:	d010      	beq.n	40257e <??process_tx_msg_11>
  40255c:	2180      	movs	r1, #128
  40255e:	02c9      	lsls	r1, r1, #11
  402560:	4001      	ands	r1, r0
  402562:	0c89      	lsrs	r1, r1, #18
  402564:	2901      	cmp	r1, #1
  402566:	d00a      	beq.n	40257e <??process_tx_msg_11>
  402568:	2108      	movs	r1, #8
  40256a:	4001      	ands	r1, r0
  40256c:	08c9      	lsrs	r1, r1, #3
  40256e:	2901      	cmp	r1, #1
  402570:	d005      	beq.n	40257e <??process_tx_msg_11>
  402572:	2180      	movs	r1, #128
  402574:	0349      	lsls	r1, r1, #13
  402576:	4001      	ands	r1, r0
  402578:	0d08      	lsrs	r0, r1, #20
  40257a:	2801      	cmp	r0, #1
  40257c:	d10f      	bne.n	40259e <??process_tx_msg_12>

0040257e <??process_tx_msg_11>:
  40257e:	6d20      	ldr	r0, [r4, #80]
  402580:	490e      	ldr	r1, [pc, #56]	(4025bc <??DataTable14>)
  402582:	4001      	ands	r1, r0
  402584:	6521      	str	r1, [r4, #80]
  402586:	7860      	ldrb	r0, [r4, #1]
  402588:	0080      	lsls	r0, r0, #2
  40258a:	1820      	adds	r0, r4, r0
  40258c:	6ac0      	ldr	r0, [r0, #44]
  40258e:	7801      	ldrb	r1, [r0, #0]
  402590:	0749      	lsls	r1, r1, #29
  402592:	0f49      	lsrs	r1, r1, #29
  402594:	2228      	movs	r2, #40
  402596:	430a      	orrs	r2, r1
  402598:	7002      	strb	r2, [r0, #0]
  40259a:	f7ff ff18 	bl	4023ce <release_current_message>

0040259e <??process_tx_msg_12>:
  40259e:	2000      	movs	r0, #0
  4025a0:	b001      	add	sp, #4
  4025a2:	9902      	ldr	r1, [sp, #8]
  4025a4:	bc30      	pop	{r4, r5}
  4025a6:	b001      	add	sp, #4
  4025a8:	4708      	bx	r1
  4025aa:	46c0      	nop			(mov r8, r8)

004025ac <??process_tx_msg_5>:
  4025ac:	00000a03 	.word	0x00000a03

004025b0 <??DataTable9>:
  4025b0:	00405368 	.word	0x00405368

004025b4 <??DataTable12>:
  4025b4:	8000408c 	.word	0x8000408c

004025b8 <??DataTable13>:
  4025b8:	8000400c 	.word	0x8000400c

004025bc <??DataTable14>:
  4025bc:	ffebfdf7 	.word	0xffebfdf7

004025c0 <process_rx_msg>:
  4025c0:	b570      	push	{r4, r5, r6, lr}
  4025c2:	4c79      	ldr	r4, [pc, #484]	(4027a8 <??process_rx_msg_1>)
  4025c4:	7860      	ldrb	r0, [r4, #1]
  4025c6:	0080      	lsls	r0, r0, #2
  4025c8:	1821      	adds	r1, r4, r0
  4025ca:	6ac8      	ldr	r0, [r1, #44]
  4025cc:	7802      	ldrb	r2, [r0, #0]
  4025ce:	08d2      	lsrs	r2, r2, #3
  4025d0:	2a07      	cmp	r2, #7
  4025d2:	d900      	bls.n	4025d6 <process_rx_msg+0x16>
  4025d4:	e0b8      	b.n	402748 <??process_rx_msg_2>
  4025d6:	a302      	add	r3, pc, #8	(adr r3, 4025e0 <??process_rx_msg_0>)
  4025d8:	5c9b      	ldrb	r3, [r3, r2]
  4025da:	005b      	lsls	r3, r3, #1
  4025dc:	449f      	add	pc, r3
  4025de:	46c0      	nop			(mov r8, r8)

004025e0 <??process_rx_msg_0>:
  4025e0:	b63d2b04 	.word	0xb63d2b04
  4025e4:	aeb4b4b4 	.word	0xaeb4b4b4

004025e8 <??process_rx_msg_3>:
  4025e8:	2200      	movs	r2, #0
  4025ea:	6522      	str	r2, [r4, #80]
  4025ec:	7022      	strb	r2, [r4, #0]
  4025ee:	6bc9      	ldr	r1, [r1, #60]
  4025f0:	64e1      	str	r1, [r4, #76]
  4025f2:	7a03      	ldrb	r3, [r0, #8]
  4025f4:	041b      	lsls	r3, r3, #16
  4025f6:	4d6d      	ldr	r5, [pc, #436]	(4027ac <??process_rx_msg_1+0x4>)
  4025f8:	602b      	str	r3, [r5, #0]
  4025fa:	4b6d      	ldr	r3, [pc, #436]	(4027b0 <??process_rx_msg_1+0x8>)
  4025fc:	0025      	lsls	r5, r4, #0
  4025fe:	3560      	adds	r5, #96
  402600:	679d      	str	r5, [r3, #120]
  402602:	6845      	ldr	r5, [r0, #4]
  402604:	675d      	str	r5, [r3, #116]
  402606:	2900      	cmp	r1, #0
  402608:	d00a      	beq.n	402620 <??process_rx_msg_4>
  40260a:	6bda      	ldr	r2, [r3, #60]
  40260c:	1851      	adds	r1, r2, r1
  40260e:	6459      	str	r1, [r3, #68]
  402610:	6bd9      	ldr	r1, [r3, #60]
  402612:	22ff      	movs	r2, #255
  402614:	0052      	lsls	r2, r2, #1
  402616:	1889      	adds	r1, r1, r2
  402618:	6499      	str	r1, [r3, #72]
  40261a:	0019      	lsls	r1, r3, #0
  40261c:	2206      	movs	r2, #6
  40261e:	e000      	b.n	402622 <??process_rx_msg_5>

00402620 <??process_rx_msg_4>:
  402620:	0019      	lsls	r1, r3, #0

00402622 <??process_rx_msg_5>:
  402622:	634a      	str	r2, [r1, #52]
  402624:	4a63      	ldr	r2, [pc, #396]	(4027b4 <??process_rx_msg_1+0xc>)
  402626:	600a      	str	r2, [r1, #0]
  402628:	7801      	ldrb	r1, [r0, #0]
  40262a:	0749      	lsls	r1, r1, #29
  40262c:	0f49      	lsrs	r1, r1, #29
  40262e:	2208      	movs	r2, #8

00402630 <??process_rx_msg_6>:
  402630:	430a      	orrs	r2, r1
  402632:	7002      	strb	r2, [r0, #0]
  402634:	e08a      	b.n	40274c <??process_rx_msg_7>

00402636 <??process_rx_msg_8>:
  402636:	6d21      	ldr	r1, [r4, #80]
  402638:	07ca      	lsls	r2, r1, #31
  40263a:	d405      	bmi.n	402648 <??process_rx_msg_9>
  40263c:	2220      	movs	r2, #32
  40263e:	400a      	ands	r2, r1
  402640:	0951      	lsrs	r1, r2, #5
  402642:	2901      	cmp	r1, #1
  402644:	d000      	beq.n	402648 <??process_rx_msg_9>
  402646:	e081      	b.n	40274c <??process_rx_msg_7>

00402648 <??process_rx_msg_9>:
  402648:	6d21      	ldr	r1, [r4, #80]
  40264a:	2201      	movs	r2, #1
  40264c:	4391      	bics	r1, r2
  40264e:	6521      	str	r1, [r4, #80]
  402650:	7801      	ldrb	r1, [r0, #0]
  402652:	0749      	lsls	r1, r1, #29
  402654:	0f49      	lsrs	r1, r1, #29
  402656:	2210      	movs	r2, #16
  402658:	e7ea      	b.n	402630 <??process_rx_msg_6>

0040265a <??process_rx_msg_10>:
  40265a:	2220      	movs	r2, #32
  40265c:	6d23      	ldr	r3, [r4, #80]
  40265e:	4013      	ands	r3, r2
  402660:	095b      	lsrs	r3, r3, #5
  402662:	2b01      	cmp	r3, #1
  402664:	d172      	bne.n	40274c <??process_rx_msg_7>
  402666:	6d23      	ldr	r3, [r4, #80]
  402668:	4393      	bics	r3, r2
  40266a:	6523      	str	r3, [r4, #80]
  40266c:	2540      	movs	r5, #64
  40266e:	401d      	ands	r5, r3
  402670:	09ad      	lsrs	r5, r5, #6
  402672:	2d01      	cmp	r5, #1
  402674:	d10f      	bne.n	402696 <??process_rx_msg_11>
  402676:	001a      	lsls	r2, r3, #0
  402678:	2340      	movs	r3, #64
  40267a:	439a      	bics	r2, r3
  40267c:	6522      	str	r2, [r4, #80]
  40267e:	6842      	ldr	r2, [r0, #4]
  402680:	7812      	ldrb	r2, [r2, #0]
  402682:	1f12      	subs	r2, r2, #4
  402684:	7202      	strb	r2, [r0, #8]
  402686:	6ac8      	ldr	r0, [r1, #44]
  402688:	7801      	ldrb	r1, [r0, #0]
  40268a:	0749      	lsls	r1, r1, #29
  40268c:	0f49      	lsrs	r1, r1, #29
  40268e:	2228      	movs	r2, #40
  402690:	430a      	orrs	r2, r1
  402692:	7002      	strb	r2, [r0, #0]
  402694:	e058      	b.n	402748 <??process_rx_msg_2>

00402696 <??process_rx_msg_11>:
  402696:	2504      	movs	r5, #4
  402698:	401d      	ands	r5, r3
  40269a:	08ad      	lsrs	r5, r5, #2
  40269c:	2d01      	cmp	r5, #1
  40269e:	d02e      	beq.n	4026fe <??process_rx_msg_12>
  4026a0:	0255      	lsls	r5, r2, #9
  4026a2:	401d      	ands	r5, r3
  4026a4:	0bad      	lsrs	r5, r5, #14
  4026a6:	2d01      	cmp	r5, #1
  4026a8:	d029      	beq.n	4026fe <??process_rx_msg_12>
  4026aa:	0295      	lsls	r5, r2, #10
  4026ac:	401d      	ands	r5, r3
  4026ae:	0beb      	lsrs	r3, r5, #15
  4026b0:	2b01      	cmp	r3, #1
  4026b2:	d024      	beq.n	4026fe <??process_rx_msg_12>
  4026b4:	7822      	ldrb	r2, [r4, #0]
  4026b6:	2a00      	cmp	r2, #0
  4026b8:	d038      	beq.n	40272c <??process_rx_msg_13>
  4026ba:	1e53      	subs	r3, r2, #1
  4026bc:	7023      	strb	r3, [r4, #0]
  4026be:	2200      	movs	r2, #0
  4026c0:	6522      	str	r2, [r4, #80]
  4026c2:	7202      	strb	r2, [r0, #8]
  4026c4:	6ac8      	ldr	r0, [r1, #44]
  4026c6:	7a05      	ldrb	r5, [r0, #8]
  4026c8:	042d      	lsls	r5, r5, #16
  4026ca:	4e38      	ldr	r6, [pc, #224]	(4027ac <??process_rx_msg_1+0x4>)
  4026cc:	6035      	str	r5, [r6, #0]
  4026ce:	4d38      	ldr	r5, [pc, #224]	(4027b0 <??process_rx_msg_1+0x8>)
  4026d0:	0026      	lsls	r6, r4, #0
  4026d2:	3660      	adds	r6, #96
  4026d4:	67ae      	str	r6, [r5, #120]
  4026d6:	6846      	ldr	r6, [r0, #4]
  4026d8:	676e      	str	r6, [r5, #116]
  4026da:	6ce5      	ldr	r5, [r4, #76]
  4026dc:	2d00      	cmp	r5, #0
  4026de:	d018      	beq.n	402712 <??process_rx_msg_14>
  4026e0:	4a33      	ldr	r2, [pc, #204]	(4027b0 <??process_rx_msg_1+0x8>)
  4026e2:	6bd2      	ldr	r2, [r2, #60]
  4026e4:	1952      	adds	r2, r2, r5
  4026e6:	4d32      	ldr	r5, [pc, #200]	(4027b0 <??process_rx_msg_1+0x8>)
  4026e8:	646a      	str	r2, [r5, #68]
  4026ea:	6bea      	ldr	r2, [r5, #60]
  4026ec:	25ff      	movs	r5, #255
  4026ee:	006d      	lsls	r5, r5, #1
  4026f0:	1952      	adds	r2, r2, r5
  4026f2:	4d2f      	ldr	r5, [pc, #188]	(4027b0 <??process_rx_msg_1+0x8>)
  4026f4:	64aa      	str	r2, [r5, #72]
  4026f6:	002a      	lsls	r2, r5, #0
  4026f8:	2506      	movs	r5, #6
  4026fa:	6355      	str	r5, [r2, #52]
  4026fc:	e00b      	b.n	402716 <??process_rx_msg_15>

004026fe <??process_rx_msg_12>:
  4026fe:	6d21      	ldr	r1, [r4, #80]
  402700:	4b2d      	ldr	r3, [pc, #180]	(4027b8 <??process_rx_msg_1+0x10>)
  402702:	400b      	ands	r3, r1
  402704:	6523      	str	r3, [r4, #80]
  402706:	7801      	ldrb	r1, [r0, #0]
  402708:	0749      	lsls	r1, r1, #29
  40270a:	0f49      	lsrs	r1, r1, #29
  40270c:	430a      	orrs	r2, r1
  40270e:	7002      	strb	r2, [r0, #0]
  402710:	e01a      	b.n	402748 <??process_rx_msg_2>

00402712 <??process_rx_msg_14>:
  402712:	4d27      	ldr	r5, [pc, #156]	(4027b0 <??process_rx_msg_1+0x8>)
  402714:	636a      	str	r2, [r5, #52]

00402716 <??process_rx_msg_15>:
  402716:	4a26      	ldr	r2, [pc, #152]	(4027b0 <??process_rx_msg_1+0x8>)
  402718:	4d26      	ldr	r5, [pc, #152]	(4027b4 <??process_rx_msg_1+0xc>)
  40271a:	6015      	str	r5, [r2, #0]
  40271c:	7802      	ldrb	r2, [r0, #0]
  40271e:	0752      	lsls	r2, r2, #29
  402720:	0f52      	lsrs	r2, r2, #29
  402722:	2508      	movs	r5, #8
  402724:	4315      	orrs	r5, r2
  402726:	7005      	strb	r5, [r0, #0]
  402728:	061b      	lsls	r3, r3, #24
  40272a:	d10f      	bne.n	40274c <??process_rx_msg_7>

0040272c <??process_rx_msg_13>:
  40272c:	6ac8      	ldr	r0, [r1, #44]
  40272e:	7801      	ldrb	r1, [r0, #0]
  402730:	0749      	lsls	r1, r1, #29
  402732:	0f49      	lsrs	r1, r1, #29
  402734:	2230      	movs	r2, #48
  402736:	430a      	orrs	r2, r1
  402738:	7002      	strb	r2, [r0, #0]
  40273a:	e005      	b.n	402748 <??process_rx_msg_2>

0040273c <??process_rx_msg_16>:
  40273c:	7801      	ldrb	r1, [r0, #0]
  40273e:	0749      	lsls	r1, r1, #29
  402740:	0f49      	lsrs	r1, r1, #29
  402742:	2240      	movs	r2, #64
  402744:	430a      	orrs	r2, r1
  402746:	7002      	strb	r2, [r0, #0]

00402748 <??process_rx_msg_2>:
  402748:	f7ff fe41 	bl	4023ce <release_current_message>

0040274c <??process_rx_msg_7>:
  40274c:	6d20      	ldr	r0, [r4, #80]
  40274e:	2180      	movs	r1, #128
  402750:	0089      	lsls	r1, r1, #2
  402752:	4001      	ands	r1, r0
  402754:	0a49      	lsrs	r1, r1, #9
  402756:	2901      	cmp	r1, #1
  402758:	d010      	beq.n	40277c <??process_rx_msg_17>
  40275a:	2180      	movs	r1, #128
  40275c:	02c9      	lsls	r1, r1, #11
  40275e:	4001      	ands	r1, r0
  402760:	0c89      	lsrs	r1, r1, #18
  402762:	2901      	cmp	r1, #1
  402764:	d00a      	beq.n	40277c <??process_rx_msg_17>
  402766:	2108      	movs	r1, #8
  402768:	4001      	ands	r1, r0
  40276a:	08c9      	lsrs	r1, r1, #3
  40276c:	2901      	cmp	r1, #1
  40276e:	d005      	beq.n	40277c <??process_rx_msg_17>
  402770:	2180      	movs	r1, #128
  402772:	0349      	lsls	r1, r1, #13
  402774:	4001      	ands	r1, r0
  402776:	0d08      	lsrs	r0, r1, #20
  402778:	2801      	cmp	r0, #1
  40277a:	d10f      	bne.n	40279c <??process_rx_msg_18>

0040277c <??process_rx_msg_17>:
  40277c:	6d20      	ldr	r0, [r4, #80]
  40277e:	490f      	ldr	r1, [pc, #60]	(4027bc <??process_rx_msg_1+0x14>)
  402780:	4001      	ands	r1, r0
  402782:	6521      	str	r1, [r4, #80]
  402784:	7860      	ldrb	r0, [r4, #1]
  402786:	0080      	lsls	r0, r0, #2
  402788:	1820      	adds	r0, r4, r0
  40278a:	6ac0      	ldr	r0, [r0, #44]
  40278c:	7801      	ldrb	r1, [r0, #0]
  40278e:	0749      	lsls	r1, r1, #29
  402790:	0f49      	lsrs	r1, r1, #29
  402792:	2230      	movs	r2, #48
  402794:	430a      	orrs	r2, r1
  402796:	7002      	strb	r2, [r0, #0]
  402798:	f7ff fe19 	bl	4023ce <release_current_message>

0040279c <??process_rx_msg_18>:
  40279c:	2000      	movs	r0, #0
  40279e:	9903      	ldr	r1, [sp, #12]
  4027a0:	bc70      	pop	{r4, r5, r6}
  4027a2:	b001      	add	sp, #4
  4027a4:	4708      	bx	r1
  4027a6:	46c0      	nop			(mov r8, r8)

004027a8 <??process_rx_msg_1>:
  4027a8:	00405368 	.word	0x00405368
  4027ac:	8000408c 	.word	0x8000408c
  4027b0:	8000400c 	.word	0x8000400c
  4027b4:	00000a04 	.word	0x00000a04
  4027b8:	ffff3ffb 	.word	0xffff3ffb
  4027bc:	ffebfdf7 	.word	0xffebfdf7

004027c0 <process_ed_msg>:
  4027c0:	b5f8      	push	{r3, r4, r5, r6, r7, lr}
  4027c2:	4c68      	ldr	r4, [pc, #416]	(402964 <??process_ed_msg_0>)
  4027c4:	7860      	ldrb	r0, [r4, #1]
  4027c6:	0080      	lsls	r0, r0, #2
  4027c8:	1821      	adds	r1, r4, r0
  4027ca:	6ac8      	ldr	r0, [r1, #44]
  4027cc:	7802      	ldrb	r2, [r0, #0]
  4027ce:	08d2      	lsrs	r2, r2, #3
  4027d0:	d005      	beq.n	4027de <??process_ed_msg_1>
  4027d2:	1e52      	subs	r2, r2, #1
  4027d4:	d032      	beq.n	40283c <??process_ed_msg_2>
  4027d6:	1ed2      	subs	r2, r2, #3
  4027d8:	d100      	bne.n	4027dc <process_ed_msg+0x1c>
  4027da:	e08c      	b.n	4028f6 <??process_ed_msg_3>
  4027dc:	e091      	b.n	402902 <??process_ed_msg_4>

004027de <??process_ed_msg_1>:
  4027de:	2100      	movs	r1, #0
  4027e0:	6521      	str	r1, [r4, #80]
  4027e2:	7021      	strb	r1, [r4, #0]
  4027e4:	2607      	movs	r6, #7
  4027e6:	7a01      	ldrb	r1, [r0, #8]
  4027e8:	2910      	cmp	r1, #16
  4027ea:	d221      	bcs.n	402830 <??process_ed_msg_5>
  4027ec:	4669      	mov	r1, sp
  4027ee:	7a00      	ldrb	r0, [r0, #8]
  4027f0:	7008      	strb	r0, [r1, #0]
  4027f2:	4d5d      	ldr	r5, [pc, #372]	(402968 <??process_ed_msg_0+0x4>)
  4027f4:	0029      	lsls	r1, r5, #0
  4027f6:	3110      	adds	r1, #16
  4027f8:	0028      	lsls	r0, r5, #0
  4027fa:	f000 fc97 	bl	40312c <GetCurrentChannel>
  4027fe:	0007      	lsls	r7, r0, #0
  402800:	4668      	mov	r0, sp
  402802:	7800      	ldrb	r0, [r0, #0]
  402804:	0081      	lsls	r1, r0, #2
  402806:	1869      	adds	r1, r5, r1
  402808:	690a      	ldr	r2, [r1, #16]
  40280a:	5c29      	ldrb	r1, [r5, r0]
  40280c:	4668      	mov	r0, sp
  40280e:	7800      	ldrb	r0, [r0, #0]
  402810:	f000 fc6c 	bl	4030ec <SetChannel>
  402814:	4855      	ldr	r0, [pc, #340]	(40296c <??process_ed_msg_0+0x8>)
  402816:	4956      	ldr	r1, [pc, #344]	(402970 <??process_ed_msg_0+0xc>)
  402818:	6001      	str	r1, [r0, #0]
  40281a:	65a7      	str	r7, [r4, #88]
  40281c:	7860      	ldrb	r0, [r4, #1]
  40281e:	0080      	lsls	r0, r0, #2
  402820:	1820      	adds	r0, r4, r0
  402822:	6ac0      	ldr	r0, [r0, #44]
  402824:	7801      	ldrb	r1, [r0, #0]
  402826:	400e      	ands	r6, r1
  402828:	2108      	movs	r1, #8
  40282a:	4331      	orrs	r1, r6
  40282c:	7001      	strb	r1, [r0, #0]
  40282e:	e06a      	b.n	402906 <??process_ed_msg_6>

00402830 <??process_ed_msg_5>:
  402830:	7801      	ldrb	r1, [r0, #0]
  402832:	400e      	ands	r6, r1
  402834:	2118      	movs	r1, #24
  402836:	4331      	orrs	r1, r6
  402838:	7001      	strb	r1, [r0, #0]
  40283a:	e062      	b.n	402902 <??process_ed_msg_4>

0040283c <??process_ed_msg_2>:
  40283c:	6d22      	ldr	r2, [r4, #80]
  40283e:	2320      	movs	r3, #32
  402840:	4013      	ands	r3, r2
  402842:	095a      	lsrs	r2, r3, #5
  402844:	2a01      	cmp	r2, #1
  402846:	d15e      	bne.n	402906 <??process_ed_msg_6>
  402848:	6d22      	ldr	r2, [r4, #80]
  40284a:	2320      	movs	r3, #32
  40284c:	439a      	bics	r2, r3
  40284e:	6522      	str	r2, [r4, #80]
  402850:	2340      	movs	r3, #64
  402852:	4013      	ands	r3, r2
  402854:	099a      	lsrs	r2, r3, #6
  402856:	2a01      	cmp	r2, #1
  402858:	d124      	bne.n	4028a4 <??process_ed_msg_7>
  40285a:	6d22      	ldr	r2, [r4, #80]
  40285c:	2340      	movs	r3, #64
  40285e:	439a      	bics	r2, r3
  402860:	6522      	str	r2, [r4, #80]
  402862:	7802      	ldrb	r2, [r0, #0]
  402864:	0752      	lsls	r2, r2, #29
  402866:	0f52      	lsrs	r2, r2, #29
  402868:	2310      	movs	r3, #16
  40286a:	4313      	orrs	r3, r2
  40286c:	7003      	strb	r3, [r0, #0]
  40286e:	4841      	ldr	r0, [pc, #260]	(402974 <??process_ed_msg_0+0x10>)
  402870:	6800      	ldr	r0, [r0, #0]
  402872:	22ff      	movs	r2, #255
  402874:	4010      	ands	r0, r2
  402876:	280f      	cmp	r0, #15
  402878:	d201      	bcs.n	40287e <??process_ed_msg_8>
  40287a:	2200      	movs	r2, #0
  40287c:	e004      	b.n	402888 <??process_ed_msg_9>

0040287e <??process_ed_msg_8>:
  40287e:	2865      	cmp	r0, #101
  402880:	d202      	bcs.n	402888 <??process_ed_msg_9>
  402882:	0042      	lsls	r2, r0, #1
  402884:	1812      	adds	r2, r2, r0
  402886:	3a2d      	subs	r2, #45

00402888 <??process_ed_msg_9>:
  402888:	6ac8      	ldr	r0, [r1, #44]
  40288a:	6840      	ldr	r0, [r0, #4]
  40288c:	7082      	strb	r2, [r0, #2]
  40288e:	6da0      	ldr	r0, [r4, #88]
  402890:	4d35      	ldr	r5, [pc, #212]	(402968 <??process_ed_msg_0+0x4>)
  402892:	0081      	lsls	r1, r0, #2
  402894:	1869      	adds	r1, r5, r1
  402896:	690a      	ldr	r2, [r1, #16]
  402898:	5c29      	ldrb	r1, [r5, r0]
  40289a:	0600      	lsls	r0, r0, #24
  40289c:	0e00      	lsrs	r0, r0, #24
  40289e:	f000 fc25 	bl	4030ec <SetChannel>
  4028a2:	e02e      	b.n	402902 <??process_ed_msg_4>

004028a4 <??process_ed_msg_7>:
  4028a4:	7821      	ldrb	r1, [r4, #0]
  4028a6:	4d30      	ldr	r5, [pc, #192]	(402968 <??process_ed_msg_0+0x4>)
  4028a8:	2900      	cmp	r1, #0
  4028aa:	d014      	beq.n	4028d6 <??process_ed_msg_10>
  4028ac:	1e49      	subs	r1, r1, #1
  4028ae:	7021      	strb	r1, [r4, #0]
  4028b0:	2100      	movs	r1, #0
  4028b2:	6521      	str	r1, [r4, #80]
  4028b4:	7a06      	ldrb	r6, [r0, #8]
  4028b6:	0029      	lsls	r1, r5, #0
  4028b8:	3110      	adds	r1, #16
  4028ba:	0028      	lsls	r0, r5, #0
  4028bc:	f000 fc36 	bl	40312c <GetCurrentChannel>
  4028c0:	00b0      	lsls	r0, r6, #2
  4028c2:	1828      	adds	r0, r5, r0
  4028c4:	6902      	ldr	r2, [r0, #16]
  4028c6:	5da9      	ldrb	r1, [r5, r6]
  4028c8:	0030      	lsls	r0, r6, #0
  4028ca:	f000 fc0f 	bl	4030ec <SetChannel>
  4028ce:	4827      	ldr	r0, [pc, #156]	(40296c <??process_ed_msg_0+0x8>)
  4028d0:	4927      	ldr	r1, [pc, #156]	(402970 <??process_ed_msg_0+0xc>)
  4028d2:	6001      	str	r1, [r0, #0]
  4028d4:	e017      	b.n	402906 <??process_ed_msg_6>

004028d6 <??process_ed_msg_10>:
  4028d6:	7801      	ldrb	r1, [r0, #0]
  4028d8:	0749      	lsls	r1, r1, #29
  4028da:	0f49      	lsrs	r1, r1, #29
  4028dc:	2218      	movs	r2, #24
  4028de:	430a      	orrs	r2, r1
  4028e0:	7002      	strb	r2, [r0, #0]
  4028e2:	6da0      	ldr	r0, [r4, #88]
  4028e4:	0081      	lsls	r1, r0, #2
  4028e6:	1869      	adds	r1, r5, r1
  4028e8:	690a      	ldr	r2, [r1, #16]
  4028ea:	5c29      	ldrb	r1, [r5, r0]
  4028ec:	0600      	lsls	r0, r0, #24
  4028ee:	0e00      	lsrs	r0, r0, #24
  4028f0:	f000 fbfc 	bl	4030ec <SetChannel>
  4028f4:	e005      	b.n	402902 <??process_ed_msg_4>

004028f6 <??process_ed_msg_3>:
  4028f6:	7801      	ldrb	r1, [r0, #0]
  4028f8:	0749      	lsls	r1, r1, #29
  4028fa:	0f49      	lsrs	r1, r1, #29
  4028fc:	2228      	movs	r2, #40
  4028fe:	430a      	orrs	r2, r1
  402900:	7002      	strb	r2, [r0, #0]

00402902 <??process_ed_msg_4>:
  402902:	f7ff fd64 	bl	4023ce <release_current_message>

00402906 <??process_ed_msg_6>:
  402906:	6d20      	ldr	r0, [r4, #80]
  402908:	2180      	movs	r1, #128
  40290a:	0089      	lsls	r1, r1, #2
  40290c:	4001      	ands	r1, r0
  40290e:	0a49      	lsrs	r1, r1, #9
  402910:	2901      	cmp	r1, #1
  402912:	d010      	beq.n	402936 <??process_ed_msg_11>
  402914:	2180      	movs	r1, #128
  402916:	02c9      	lsls	r1, r1, #11
  402918:	4001      	ands	r1, r0
  40291a:	0c89      	lsrs	r1, r1, #18
  40291c:	2901      	cmp	r1, #1
  40291e:	d00a      	beq.n	402936 <??process_ed_msg_11>
  402920:	2108      	movs	r1, #8
  402922:	4001      	ands	r1, r0
  402924:	08c9      	lsrs	r1, r1, #3
  402926:	2901      	cmp	r1, #1
  402928:	d005      	beq.n	402936 <??process_ed_msg_11>
  40292a:	2180      	movs	r1, #128
  40292c:	0349      	lsls	r1, r1, #13
  40292e:	4001      	ands	r1, r0
  402930:	0d08      	lsrs	r0, r1, #20
  402932:	2801      	cmp	r0, #1
  402934:	d10f      	bne.n	402956 <??process_ed_msg_12>

00402936 <??process_ed_msg_11>:
  402936:	6d20      	ldr	r0, [r4, #80]
  402938:	490f      	ldr	r1, [pc, #60]	(402978 <??process_ed_msg_0+0x14>)
  40293a:	4001      	ands	r1, r0
  40293c:	6521      	str	r1, [r4, #80]
  40293e:	7860      	ldrb	r0, [r4, #1]
  402940:	0080      	lsls	r0, r0, #2
  402942:	1820      	adds	r0, r4, r0
  402944:	6ac0      	ldr	r0, [r0, #44]
  402946:	7801      	ldrb	r1, [r0, #0]
  402948:	0749      	lsls	r1, r1, #29
  40294a:	0f49      	lsrs	r1, r1, #29
  40294c:	2218      	movs	r2, #24
  40294e:	430a      	orrs	r2, r1
  402950:	7002      	strb	r2, [r0, #0]
  402952:	f7ff fd3c 	bl	4023ce <release_current_message>

00402956 <??process_ed_msg_12>:
  402956:	2000      	movs	r0, #0
  402958:	b001      	add	sp, #4
  40295a:	9904      	ldr	r1, [sp, #16]
  40295c:	bcf0      	pop	{r4, r5, r6, r7}
  40295e:	b001      	add	sp, #4
  402960:	4708      	bx	r1
  402962:	46c0      	nop			(mov r8, r8)

00402964 <??process_ed_msg_0>:
  402964:	00405368 	.word	0x00405368
  402968:	00403c04 	.word	0x00403c04
  40296c:	8000400c 	.word	0x8000400c
  402970:	00000a07 	.word	0x00000a07
  402974:	80009488 	.word	0x80009488
  402978:	ffebfdf7 	.word	0xffebfdf7

0040297c <process_to_msg>:
  40297c:	b510      	push	{r4, lr}
  40297e:	4c58      	ldr	r4, [pc, #352]	(402ae0 <??DataTable15>)
  402980:	7860      	ldrb	r0, [r4, #1]
  402982:	0080      	lsls	r0, r0, #2
  402984:	1820      	adds	r0, r4, r0
  402986:	6ac0      	ldr	r0, [r0, #44]
  402988:	7801      	ldrb	r1, [r0, #0]
  40298a:	08c9      	lsrs	r1, r1, #3
  40298c:	d004      	beq.n	402998 <??process_to_msg_0>
  40298e:	1e49      	subs	r1, r1, #1
  402990:	d01c      	beq.n	4029cc <??process_to_msg_1>
  402992:	1ec9      	subs	r1, r1, #3
  402994:	d067      	beq.n	402a66 <??process_to_msg_2>
  402996:	e06c      	b.n	402a72 <??process_to_msg_3>

00402998 <??process_to_msg_0>:
  402998:	2100      	movs	r1, #0
  40299a:	6521      	str	r1, [r4, #80]
  40299c:	7021      	strb	r1, [r4, #0]
  40299e:	4951      	ldr	r1, [pc, #324]	(402ae4 <??DataTable20>)
  4029a0:	6bc9      	ldr	r1, [r1, #60]
  4029a2:	6842      	ldr	r2, [r0, #4]
  4029a4:	7892      	ldrb	r2, [r2, #2]
  4029a6:	1889      	adds	r1, r1, r2
  4029a8:	4a4e      	ldr	r2, [pc, #312]	(402ae4 <??DataTable20>)
  4029aa:	6451      	str	r1, [r2, #68]
  4029ac:	6bd1      	ldr	r1, [r2, #60]
  4029ae:	6842      	ldr	r2, [r0, #4]
  4029b0:	7892      	ldrb	r2, [r2, #2]
  4029b2:	1889      	adds	r1, r1, r2
  4029b4:	4a4b      	ldr	r2, [pc, #300]	(402ae4 <??DataTable20>)
  4029b6:	6491      	str	r1, [r2, #72]
  4029b8:	0011      	lsls	r1, r2, #0
  4029ba:	4a46      	ldr	r2, [pc, #280]	(402ad4 <??Subroutine0_0>)
  4029bc:	600a      	str	r2, [r1, #0]
  4029be:	7801      	ldrb	r1, [r0, #0]
  4029c0:	0749      	lsls	r1, r1, #29
  4029c2:	0f49      	lsrs	r1, r1, #29
  4029c4:	2208      	movs	r2, #8
  4029c6:	430a      	orrs	r2, r1
  4029c8:	7002      	strb	r2, [r0, #0]
  4029ca:	e054      	b.n	402a76 <??process_to_msg_4>

004029cc <??process_to_msg_1>:
  4029cc:	6d21      	ldr	r1, [r4, #80]
  4029ce:	2220      	movs	r2, #32
  4029d0:	400a      	ands	r2, r1
  4029d2:	0951      	lsrs	r1, r2, #5
  4029d4:	2901      	cmp	r1, #1
  4029d6:	d14e      	bne.n	402a76 <??process_to_msg_4>
  4029d8:	6d21      	ldr	r1, [r4, #80]
  4029da:	2220      	movs	r2, #32
  4029dc:	4391      	bics	r1, r2
  4029de:	6521      	str	r1, [r4, #80]
  4029e0:	2240      	movs	r2, #64
  4029e2:	400a      	ands	r2, r1
  4029e4:	0992      	lsrs	r2, r2, #6
  4029e6:	2a01      	cmp	r2, #1
  4029e8:	d01f      	beq.n	402a2a <??process_to_msg_5>
  4029ea:	2280      	movs	r2, #128
  4029ec:	400a      	ands	r2, r1
  4029ee:	09d2      	lsrs	r2, r2, #7
  4029f0:	2a01      	cmp	r2, #1
  4029f2:	d01a      	beq.n	402a2a <??process_to_msg_5>
  4029f4:	2204      	movs	r2, #4
  4029f6:	400a      	ands	r2, r1
  4029f8:	0892      	lsrs	r2, r2, #2
  4029fa:	2a01      	cmp	r2, #1
  4029fc:	d015      	beq.n	402a2a <??process_to_msg_5>
  4029fe:	2280      	movs	r2, #128
  402a00:	01d2      	lsls	r2, r2, #7
  402a02:	400a      	ands	r2, r1
  402a04:	0b92      	lsrs	r2, r2, #14
  402a06:	2a01      	cmp	r2, #1
  402a08:	d00f      	beq.n	402a2a <??process_to_msg_5>
  402a0a:	2280      	movs	r2, #128
  402a0c:	0212      	lsls	r2, r2, #8
  402a0e:	400a      	ands	r2, r1
  402a10:	0bd1      	lsrs	r1, r2, #15
  402a12:	2901      	cmp	r1, #1
  402a14:	d009      	beq.n	402a2a <??process_to_msg_5>
  402a16:	7821      	ldrb	r1, [r4, #0]
  402a18:	2900      	cmp	r1, #0
  402a1a:	d111      	bne.n	402a40 <??process_to_msg_6>
  402a1c:	7801      	ldrb	r1, [r0, #0]
  402a1e:	0749      	lsls	r1, r1, #29
  402a20:	0f49      	lsrs	r1, r1, #29
  402a22:	2218      	movs	r2, #24
  402a24:	430a      	orrs	r2, r1
  402a26:	7002      	strb	r2, [r0, #0]
  402a28:	e023      	b.n	402a72 <??process_to_msg_3>

00402a2a <??process_to_msg_5>:
  402a2a:	6d21      	ldr	r1, [r4, #80]
  402a2c:	4a2a      	ldr	r2, [pc, #168]	(402ad8 <??Subroutine0_0+0x4>)
  402a2e:	400a      	ands	r2, r1
  402a30:	6522      	str	r2, [r4, #80]
  402a32:	7801      	ldrb	r1, [r0, #0]
  402a34:	0749      	lsls	r1, r1, #29
  402a36:	0f49      	lsrs	r1, r1, #29
  402a38:	2210      	movs	r2, #16
  402a3a:	430a      	orrs	r2, r1
  402a3c:	7002      	strb	r2, [r0, #0]
  402a3e:	e018      	b.n	402a72 <??process_to_msg_3>

00402a40 <??process_to_msg_6>:
  402a40:	1e49      	subs	r1, r1, #1
  402a42:	7021      	strb	r1, [r4, #0]
  402a44:	2100      	movs	r1, #0
  402a46:	6521      	str	r1, [r4, #80]
  402a48:	4926      	ldr	r1, [pc, #152]	(402ae4 <??DataTable20>)
  402a4a:	6bc9      	ldr	r1, [r1, #60]
  402a4c:	6842      	ldr	r2, [r0, #4]
  402a4e:	7892      	ldrb	r2, [r2, #2]
  402a50:	1889      	adds	r1, r1, r2
  402a52:	4a24      	ldr	r2, [pc, #144]	(402ae4 <??DataTable20>)
  402a54:	6451      	str	r1, [r2, #68]
  402a56:	6bd1      	ldr	r1, [r2, #60]
  402a58:	6840      	ldr	r0, [r0, #4]
  402a5a:	7880      	ldrb	r0, [r0, #2]
  402a5c:	1808      	adds	r0, r1, r0
  402a5e:	6490      	str	r0, [r2, #72]
  402a60:	491e      	ldr	r1, [pc, #120]	(402adc <??Subroutine0_0+0x8>)
  402a62:	6011      	str	r1, [r2, #0]
  402a64:	e007      	b.n	402a76 <??process_to_msg_4>

00402a66 <??process_to_msg_2>:
  402a66:	7801      	ldrb	r1, [r0, #0]
  402a68:	0749      	lsls	r1, r1, #29
  402a6a:	0f49      	lsrs	r1, r1, #29
  402a6c:	2228      	movs	r2, #40
  402a6e:	430a      	orrs	r2, r1
  402a70:	7002      	strb	r2, [r0, #0]

00402a72 <??process_to_msg_3>:
  402a72:	f7ff fcac 	bl	4023ce <release_current_message>

00402a76 <??process_to_msg_4>:
  402a76:	6d20      	ldr	r0, [r4, #80]
  402a78:	2180      	movs	r1, #128
  402a7a:	0089      	lsls	r1, r1, #2
  402a7c:	4001      	ands	r1, r0
  402a7e:	0a49      	lsrs	r1, r1, #9
  402a80:	2901      	cmp	r1, #1
  402a82:	d010      	beq.n	402aa6 <??process_to_msg_7>
  402a84:	2180      	movs	r1, #128
  402a86:	02c9      	lsls	r1, r1, #11
  402a88:	4001      	ands	r1, r0
  402a8a:	0c89      	lsrs	r1, r1, #18
  402a8c:	2901      	cmp	r1, #1
  402a8e:	d00a      	beq.n	402aa6 <??process_to_msg_7>
  402a90:	2108      	movs	r1, #8
  402a92:	4001      	ands	r1, r0
  402a94:	08c9      	lsrs	r1, r1, #3
  402a96:	2901      	cmp	r1, #1
  402a98:	d005      	beq.n	402aa6 <??process_to_msg_7>
  402a9a:	2180      	movs	r1, #128
  402a9c:	0349      	lsls	r1, r1, #13
  402a9e:	4001      	ands	r1, r0
  402aa0:	0d08      	lsrs	r0, r1, #20
  402aa2:	2801      	cmp	r0, #1
  402aa4:	d10f      	bne.n	402ac6 <??process_to_msg_8>

00402aa6 <??process_to_msg_7>:
  402aa6:	6d20      	ldr	r0, [r4, #80]
  402aa8:	490f      	ldr	r1, [pc, #60]	(402ae8 <??DataTable21>)
  402aaa:	4001      	ands	r1, r0
  402aac:	6521      	str	r1, [r4, #80]
  402aae:	7860      	ldrb	r0, [r4, #1]
  402ab0:	0080      	lsls	r0, r0, #2
  402ab2:	1820      	adds	r0, r4, r0
  402ab4:	6ac0      	ldr	r0, [r0, #44]
  402ab6:	7801      	ldrb	r1, [r0, #0]
  402ab8:	0749      	lsls	r1, r1, #29
  402aba:	0f49      	lsrs	r1, r1, #29
  402abc:	2218      	movs	r2, #24
  402abe:	430a      	orrs	r2, r1
  402ac0:	7002      	strb	r2, [r0, #0]
  402ac2:	f7ff fc84 	bl	4023ce <release_current_message>

00402ac6 <??process_to_msg_8>:
  402ac6:	46c0      	nop			(mov r8, r8)

00402ac8 <?Subroutine0>:
  402ac8:	2000      	movs	r0, #0
  402aca:	9901      	ldr	r1, [sp, #4]
  402acc:	bc10      	pop	{r4}
  402ace:	b001      	add	sp, #4
  402ad0:	4708      	bx	r1
  402ad2:	46c0      	nop			(mov r8, r8)

00402ad4 <??Subroutine0_0>:
  402ad4:	00000a02 	.word	0x00000a02
  402ad8:	ffff3f3b 	.word	0xffff3f3b
  402adc:	00000a02 	.word	0x00000a02

00402ae0 <??DataTable15>:
  402ae0:	00405368 	.word	0x00405368

00402ae4 <??DataTable20>:
  402ae4:	8000400c 	.word	0x8000400c

00402ae8 <??DataTable21>:
  402ae8:	ffebfdf7 	.word	0xffebfdf7

00402aec <process_scan_req>:
  402aec:	b570      	push	{r4, r5, r6, lr}
  402aee:	4c24      	ldr	r4, [pc, #144]	(402b80 <??process_scan_req_0>)
  402af0:	7a20      	ldrb	r0, [r4, #8]
  402af2:	08c0      	lsrs	r0, r0, #3
  402af4:	2802      	cmp	r0, #2
  402af6:	d135      	bne.n	402b64 <??process_scan_req_1>
  402af8:	68e0      	ldr	r0, [r4, #12]
  402afa:	7880      	ldrb	r0, [r0, #2]
  402afc:	79a5      	ldrb	r5, [r4, #6]
  402afe:	1961      	adds	r1, r4, r5
  402b00:	7608      	strb	r0, [r1, #24]
  402b02:	7921      	ldrb	r1, [r4, #4]
  402b04:	4281      	cmp	r1, r0
  402b06:	d201      	bcs.n	402b0c <??process_scan_req_2>
  402b08:	7120      	strb	r0, [r4, #4]
  402b0a:	7165      	strb	r5, [r4, #5]

00402b0c <??process_scan_req_2>:
  402b0c:	2800      	cmp	r0, #0
  402b0e:	d102      	bne.n	402b16 <??process_scan_req_3>
  402b10:	79e0      	ldrb	r0, [r4, #7]
  402b12:	2801      	cmp	r0, #1
  402b14:	d110      	bne.n	402b38 <??process_scan_req_4>

00402b16 <??process_scan_req_3>:
  402b16:	0028      	lsls	r0, r5, #0
  402b18:	f000 f834 	bl	402b84 <get_next_chann_to_scan>
  402b1c:	71a0      	strb	r0, [r4, #6]
  402b1e:	2600      	movs	r6, #0
  402b20:	71e6      	strb	r6, [r4, #7]
  402b22:	42a8      	cmp	r0, r5
  402b24:	d20a      	bcs.n	402b3c <??process_scan_req_5>
  402b26:	70e6      	strb	r6, [r4, #3]
  402b28:	7960      	ldrb	r0, [r4, #5]
  402b2a:	6d61      	ldr	r1, [r4, #84]
  402b2c:	f001 fa08 	bl	403f40 <__iar_via_R1>
  402b30:	7126      	strb	r6, [r4, #4]
  402b32:	200f      	movs	r0, #15
  402b34:	7160      	strb	r0, [r4, #5]
  402b36:	e001      	b.n	402b3c <??process_scan_req_5>

00402b38 <??process_scan_req_4>:
  402b38:	2001      	movs	r0, #1
  402b3a:	71e0      	strb	r0, [r4, #7]

00402b3c <??process_scan_req_5>:
  402b3c:	2000      	movs	r0, #0
  402b3e:	0021      	lsls	r1, r4, #0
  402b40:	312c      	adds	r1, #44

00402b42 <??process_scan_req_6>:
  402b42:	680a      	ldr	r2, [r1, #0]
  402b44:	0023      	lsls	r3, r4, #0
  402b46:	3308      	adds	r3, #8
  402b48:	429a      	cmp	r2, r3
  402b4a:	d014      	beq.n	402b76 <??process_scan_req_7>
  402b4c:	1c40      	adds	r0, r0, #1
  402b4e:	1d09      	adds	r1, r1, #4
  402b50:	0602      	lsls	r2, r0, #24
  402b52:	0e12      	lsrs	r2, r2, #24
  402b54:	2a04      	cmp	r2, #4
  402b56:	d3f4      	bcc.n	402b42 <??process_scan_req_6>
  402b58:	79a1      	ldrb	r1, [r4, #6]
  402b5a:	3408      	adds	r4, #8
  402b5c:	0020      	lsls	r0, r4, #0
  402b5e:	f000 ff81 	bl	403a64 <MLMEEnergyDetect>
  402b62:	e008      	b.n	402b76 <??process_scan_req_7>

00402b64 <??process_scan_req_1>:
  402b64:	2805      	cmp	r0, #5
  402b66:	d001      	beq.n	402b6c <??process_scan_req_8>
  402b68:	2803      	cmp	r0, #3
  402b6a:	d104      	bne.n	402b76 <??process_scan_req_7>

00402b6c <??process_scan_req_8>:
  402b6c:	79a1      	ldrb	r1, [r4, #6]
  402b6e:	3408      	adds	r4, #8
  402b70:	0020      	lsls	r0, r4, #0
  402b72:	f000 ff77 	bl	403a64 <MLMEEnergyDetect>

00402b76 <??process_scan_req_7>:
  402b76:	9803      	ldr	r0, [sp, #12]
  402b78:	bc70      	pop	{r4, r5, r6}
  402b7a:	b001      	add	sp, #4
  402b7c:	4700      	bx	r0
  402b7e:	46c0      	nop			(mov r8, r8)

00402b80 <??process_scan_req_0>:
  402b80:	00405368 	.word	0x00405368

00402b84 <get_next_chann_to_scan>:
  402b84:	b418      	push	{r3, r4}
  402b86:	2200      	movs	r2, #0
  402b88:	4b09      	ldr	r3, [pc, #36]	(402bb0 <??get_next_chann_to_scan_0>)
  402b8a:	881b      	ldrh	r3, [r3, #0]

00402b8c <??get_next_chann_to_scan_1>:
  402b8c:	280f      	cmp	r0, #15
  402b8e:	d203      	bcs.n	402b98 <??get_next_chann_to_scan_2>
  402b90:	1c40      	adds	r0, r0, #1
  402b92:	0600      	lsls	r0, r0, #24
  402b94:	0e00      	lsrs	r0, r0, #24
  402b96:	e000      	b.n	402b9a <??get_next_chann_to_scan_3>

00402b98 <??get_next_chann_to_scan_2>:
  402b98:	2000      	movs	r0, #0

00402b9a <??get_next_chann_to_scan_3>:
  402b9a:	2401      	movs	r4, #1
  402b9c:	4084      	lsls	r4, r0
  402b9e:	4223      	tst	r3, r4
  402ba0:	d104      	bne.n	402bac <??get_next_chann_to_scan_4>
  402ba2:	1c52      	adds	r2, r2, #1
  402ba4:	0614      	lsls	r4, r2, #24
  402ba6:	0e24      	lsrs	r4, r4, #24
  402ba8:	2c10      	cmp	r4, #16
  402baa:	d3ef      	bcc.n	402b8c <??get_next_chann_to_scan_1>

00402bac <??get_next_chann_to_scan_4>:
  402bac:	bc12      	pop	{r1, r4}
  402bae:	4770      	bx	lr

00402bb0 <??get_next_chann_to_scan_0>:
  402bb0:	00405390 	.word	0x00405390

00402bb4 <ResumeMACASync>:
  402bb4:	b570      	push	{r4, r5, r6, lr}
  402bb6:	b082      	sub	sp, #8
  402bb8:	2007      	movs	r0, #7
  402bba:	f40d fa11 	bl	ffe0 <ITC_DisableInterrupt>
  402bbe:	481d      	ldr	r0, [pc, #116]	(402c34 <??ResumeMACASync_0>)
  402bc0:	6802      	ldr	r2, [r0, #0]
  402bc2:	06d0      	lsls	r0, r2, #27
  402bc4:	0e40      	lsrs	r0, r0, #25
  402bc6:	4b1c      	ldr	r3, [pc, #112]	(402c38 <??ResumeMACASync_0+0x4>)
  402bc8:	18c0      	adds	r0, r0, r3
  402bca:	6801      	ldr	r1, [r0, #0]
  402bcc:	24f8      	movs	r4, #248
  402bce:	0164      	lsls	r4, r4, #5
  402bd0:	4014      	ands	r4, r2
  402bd2:	0a22      	lsrs	r2, r4, #8
  402bd4:	0092      	lsls	r2, r2, #2
  402bd6:	58d2      	ldr	r2, [r2, r3]
  402bd8:	6002      	str	r2, [r0, #0]
  402bda:	4a7b      	ldr	r2, [pc, #492]	(402dc8 <??DataTable5>)
  402bdc:	2301      	movs	r3, #1
  402bde:	6013      	str	r3, [r2, #0]
  402be0:	6bd4      	ldr	r4, [r2, #60]
  402be2:	2300      	movs	r3, #0
  402be4:	9300      	str	r3, [sp, #0]
  402be6:	2596      	movs	r5, #150
  402be8:	006d      	lsls	r5, r5, #1
  402bea:	e002      	b.n	402bf2 <??ResumeMACASync_1>

00402bec <??ResumeMACASync_2>:
  402bec:	9e00      	ldr	r6, [sp, #0]
  402bee:	1c76      	adds	r6, r6, #1
  402bf0:	9600      	str	r6, [sp, #0]

00402bf2 <??ResumeMACASync_1>:
  402bf2:	6bd6      	ldr	r6, [r2, #60]
  402bf4:	1b36      	subs	r6, r6, r4
  402bf6:	2e03      	cmp	r6, #3
  402bf8:	d202      	bcs.n	402c00 <??ResumeMACASync_3>
  402bfa:	9e00      	ldr	r6, [sp, #0]
  402bfc:	42ae      	cmp	r6, r5
  402bfe:	d3f5      	bcc.n	402bec <??ResumeMACASync_2>

00402c00 <??ResumeMACASync_3>:
  402c00:	6013      	str	r3, [r2, #0]
  402c02:	6bd2      	ldr	r2, [r2, #60]
  402c04:	e001      	b.n	402c0a <??ResumeMACASync_4>

00402c06 <??ResumeMACASync_5>:
  402c06:	9b00      	ldr	r3, [sp, #0]
  402c08:	1c5b      	adds	r3, r3, #1

00402c0a <??ResumeMACASync_4>:
  402c0a:	9300      	str	r3, [sp, #0]
  402c0c:	4b6e      	ldr	r3, [pc, #440]	(402dc8 <??DataTable5>)
  402c0e:	6bdb      	ldr	r3, [r3, #60]
  402c10:	1a9b      	subs	r3, r3, r2
  402c12:	2b03      	cmp	r3, #3
  402c14:	d202      	bcs.n	402c1c <??ResumeMACASync_6>
  402c16:	9b00      	ldr	r3, [sp, #0]
  402c18:	42ab      	cmp	r3, r5
  402c1a:	d3f4      	bcc.n	402c06 <??ResumeMACASync_5>

00402c1c <??ResumeMACASync_6>:
  402c1c:	6001      	str	r1, [r0, #0]
  402c1e:	4807      	ldr	r0, [pc, #28]	(402c3c <??ResumeMACASync_0+0x8>)
  402c20:	4907      	ldr	r1, [pc, #28]	(402c40 <??ResumeMACASync_0+0xc>)
  402c22:	6001      	str	r1, [r0, #0]
  402c24:	2007      	movs	r0, #7
  402c26:	f40d f9cd 	bl	ffc4 <ITC_EnableInterrupt>
  402c2a:	b002      	add	sp, #8
  402c2c:	9803      	ldr	r0, [sp, #12]
  402c2e:	bc70      	pop	{r4, r5, r6}
  402c30:	b001      	add	sp, #4
  402c32:	4700      	bx	r0

00402c34 <??ResumeMACASync_0>:
  402c34:	80009204 	.word	0x80009204
  402c38:	80009300 	.word	0x80009300
  402c3c:	800040c4 	.word	0x800040c4
  402c40:	0000ffff 	.word	0x0000ffff

00402c44 <MACA_Interrupt>:
  402c44:	b5f8      	push	{r3, r4, r5, r6, r7, lr}
  402c46:	485b      	ldr	r0, [pc, #364]	(402db4 <??MACA_Interrupt_1>)
  402c48:	6804      	ldr	r4, [r0, #0]
  402c4a:	6044      	str	r4, [r0, #4]
  402c4c:	4f5a      	ldr	r7, [pc, #360]	(402db8 <??MACA_Interrupt_1+0x4>)
  402c4e:	7838      	ldrb	r0, [r7, #0]
  402c50:	1c40      	adds	r0, r0, #1
  402c52:	7038      	strb	r0, [r7, #0]
  402c54:	2580      	movs	r5, #128
  402c56:	022d      	lsls	r5, r5, #8
  402c58:	422c      	tst	r4, r5
  402c5a:	d005      	beq.n	402c68 <??MACA_Interrupt_2>
  402c5c:	4e57      	ldr	r6, [pc, #348]	(402dbc <??MACA_Interrupt_1+0x8>)
  402c5e:	6830      	ldr	r0, [r6, #0]
  402c60:	2101      	movs	r1, #1

00402c62 <??MACA_Interrupt_3>:
  402c62:	4301      	orrs	r1, r0
  402c64:	6031      	str	r1, [r6, #0]
  402c66:	e09c      	b.n	402da2 <??MACA_Interrupt_4>

00402c68 <??MACA_Interrupt_2>:
  402c68:	07e0      	lsls	r0, r4, #31
  402c6a:	d552      	bpl.n	402d12 <??MACA_Interrupt_5>
  402c6c:	4e53      	ldr	r6, [pc, #332]	(402dbc <??MACA_Interrupt_1+0x8>)
  402c6e:	6830      	ldr	r0, [r6, #0]
  402c70:	2120      	movs	r1, #32
  402c72:	4301      	orrs	r1, r0
  402c74:	6031      	str	r1, [r6, #0]
  402c76:	f7ff fb7f 	bl	402378 <execute_current_message_callback>
  402c7a:	4853      	ldr	r0, [pc, #332]	(402dc8 <??DataTable5>)
  402c7c:	6840      	ldr	r0, [r0, #4]
  402c7e:	0700      	lsls	r0, r0, #28
  402c80:	0f00      	lsrs	r0, r0, #28
  402c82:	280f      	cmp	r0, #15
  402c84:	d900      	bls.n	402c88 <??MACA_Interrupt_2+0x20>
  402c86:	e08c      	b.n	402da2 <??MACA_Interrupt_4>
  402c88:	a101      	add	r1, pc, #4	(adr r1, 402c90 <??MACA_Interrupt_0>)
  402c8a:	5c09      	ldrb	r1, [r1, r0]
  402c8c:	0049      	lsls	r1, r1, #1
  402c8e:	448f      	add	pc, r1

00402c90 <??MACA_Interrupt_0>:
  402c90:	18130e07 	.word	0x18130e07
  402c94:	8888861b 	.word	0x8888861b
  402c98:	88882520 	.word	0x88882520
  402c9c:	3d383588 	.word	0x3d383588

00402ca0 <??MACA_Interrupt_6>:
  402ca0:	6830      	ldr	r0, [r6, #0]
  402ca2:	2140      	movs	r1, #64
  402ca4:	4301      	orrs	r1, r0
  402ca6:	6031      	str	r1, [r6, #0]
  402ca8:	2001      	movs	r0, #1
  402caa:	7078      	strb	r0, [r7, #1]
  402cac:	e079      	b.n	402da2 <??MACA_Interrupt_4>

00402cae <??MACA_Interrupt_7>:
  402cae:	f7ff ff81 	bl	402bb4 <ResumeMACASync>
  402cb2:	6830      	ldr	r0, [r6, #0]
  402cb4:	2180      	movs	r1, #128
  402cb6:	e7d4      	b.n	402c62 <??MACA_Interrupt_3>

00402cb8 <??MACA_Interrupt_8>:
  402cb8:	6830      	ldr	r0, [r6, #0]
  402cba:	09e9      	lsrs	r1, r5, #7

00402cbc <??MACA_Interrupt_9>:
  402cbc:	4301      	orrs	r1, r0
  402cbe:	6031      	str	r1, [r6, #0]
  402cc0:	e06f      	b.n	402da2 <??MACA_Interrupt_4>

00402cc2 <??MACA_Interrupt_10>:
  402cc2:	6830      	ldr	r0, [r6, #0]
  402cc4:	09a9      	lsrs	r1, r5, #6
  402cc6:	e7cc      	b.n	402c62 <??MACA_Interrupt_3>

00402cc8 <??MACA_Interrupt_11>:
  402cc8:	6830      	ldr	r0, [r6, #0]
  402cca:	0969      	lsrs	r1, r5, #5
  402ccc:	4301      	orrs	r1, r0
  402cce:	6031      	str	r1, [r6, #0]
  402cd0:	e065      	b.n	402d9e <??MACA_Interrupt_12>

00402cd2 <??MACA_Interrupt_13>:
  402cd2:	f7ff ff6f 	bl	402bb4 <ResumeMACASync>
  402cd6:	6830      	ldr	r0, [r6, #0]
  402cd8:	0869      	lsrs	r1, r5, #1
  402cda:	e7c2      	b.n	402c62 <??MACA_Interrupt_3>

00402cdc <??MACA_Interrupt_14>:
  402cdc:	f7ff ff6a 	bl	402bb4 <ResumeMACASync>
  402ce0:	20c0      	movs	r0, #192
  402ce2:	0140      	lsls	r0, r0, #5
  402ce4:	4204      	tst	r4, r0
  402ce6:	d005      	beq.n	402cf4 <??MACA_Interrupt_15>
  402ce8:	f7ff ff64 	bl	402bb4 <ResumeMACASync>
  402cec:	6830      	ldr	r0, [r6, #0]
  402cee:	2180      	movs	r1, #128
  402cf0:	4301      	orrs	r1, r0
  402cf2:	6031      	str	r1, [r6, #0]

00402cf4 <??MACA_Interrupt_15>:
  402cf4:	6830      	ldr	r0, [r6, #0]
  402cf6:	4305      	orrs	r5, r0
  402cf8:	6035      	str	r5, [r6, #0]
  402cfa:	e052      	b.n	402da2 <??MACA_Interrupt_4>

00402cfc <??MACA_Interrupt_16>:
  402cfc:	6830      	ldr	r0, [r6, #0]
  402cfe:	00a9      	lsls	r1, r5, #2
  402d00:	e7af      	b.n	402c62 <??MACA_Interrupt_3>

00402d02 <??MACA_Interrupt_17>:
  402d02:	f7ff ff57 	bl	402bb4 <ResumeMACASync>
  402d06:	6830      	ldr	r0, [r6, #0]
  402d08:	00e9      	lsls	r1, r5, #3
  402d0a:	e7d7      	b.n	402cbc <??MACA_Interrupt_9>

00402d0c <??MACA_Interrupt_18>:
  402d0c:	6830      	ldr	r0, [r6, #0]
  402d0e:	0129      	lsls	r1, r5, #4
  402d10:	e7a7      	b.n	402c62 <??MACA_Interrupt_3>

00402d12 <??MACA_Interrupt_5>:
  402d12:	482b      	ldr	r0, [pc, #172]	(402dc0 <??MACA_Interrupt_1+0xc>)
  402d14:	4020      	ands	r0, r4
  402d16:	08e9      	lsrs	r1, r5, #3
  402d18:	4288      	cmp	r0, r1
  402d1a:	d105      	bne.n	402d28 <??MACA_Interrupt_19>
  402d1c:	4e27      	ldr	r6, [pc, #156]	(402dbc <??MACA_Interrupt_1+0x8>)
  402d1e:	6830      	ldr	r0, [r6, #0]
  402d20:	2108      	movs	r1, #8
  402d22:	4301      	orrs	r1, r0
  402d24:	6031      	str	r1, [r6, #0]
  402d26:	e03a      	b.n	402d9e <??MACA_Interrupt_12>

00402d28 <??MACA_Interrupt_19>:
  402d28:	2004      	movs	r0, #4
  402d2a:	4204      	tst	r4, r0
  402d2c:	d01c      	beq.n	402d68 <??MACA_Interrupt_20>
  402d2e:	4826      	ldr	r0, [pc, #152]	(402dc8 <??DataTable5>)
  402d30:	4924      	ldr	r1, [pc, #144]	(402dc4 <??MACA_Interrupt_1+0x10>)
  402d32:	6001      	str	r1, [r0, #0]
  402d34:	f000 fdc8 	bl	4038c8 <MLMEGetPromiscuousMode>
  402d38:	2800      	cmp	r0, #0
  402d3a:	d109      	bne.n	402d50 <??MACA_Interrupt_21>
  402d3c:	4822      	ldr	r0, [pc, #136]	(402dc8 <??DataTable5>)
  402d3e:	6f40      	ldr	r0, [r0, #116]
  402d40:	7840      	ldrb	r0, [r0, #1]
  402d42:	287e      	cmp	r0, #126
  402d44:	d10c      	bne.n	402d60 <??MACA_Interrupt_22>
  402d46:	4820      	ldr	r0, [pc, #128]	(402dc8 <??DataTable5>)
  402d48:	6f40      	ldr	r0, [r0, #116]
  402d4a:	7880      	ldrb	r0, [r0, #2]
  402d4c:	28ff      	cmp	r0, #255
  402d4e:	d107      	bne.n	402d60 <??MACA_Interrupt_22>

00402d50 <??MACA_Interrupt_21>:
  402d50:	4e1a      	ldr	r6, [pc, #104]	(402dbc <??MACA_Interrupt_1+0x8>)
  402d52:	6830      	ldr	r0, [r6, #0]
  402d54:	2170      	movs	r1, #112
  402d56:	4301      	orrs	r1, r0
  402d58:	6031      	str	r1, [r6, #0]
  402d5a:	f7ff fb0d 	bl	402378 <execute_current_message_callback>
  402d5e:	e020      	b.n	402da2 <??MACA_Interrupt_4>

00402d60 <??MACA_Interrupt_22>:
  402d60:	4e16      	ldr	r6, [pc, #88]	(402dbc <??MACA_Interrupt_1+0x8>)
  402d62:	6830      	ldr	r0, [r6, #0]
  402d64:	00e9      	lsls	r1, r5, #3
  402d66:	e77c      	b.n	402c62 <??MACA_Interrupt_3>

00402d68 <??MACA_Interrupt_20>:
  402d68:	0521      	lsls	r1, r4, #20
  402d6a:	d505      	bpl.n	402d78 <??MACA_Interrupt_23>
  402d6c:	f7ff ff22 	bl	402bb4 <ResumeMACASync>
  402d70:	4e12      	ldr	r6, [pc, #72]	(402dbc <??MACA_Interrupt_1+0x8>)
  402d72:	6830      	ldr	r0, [r6, #0]
  402d74:	0169      	lsls	r1, r5, #5
  402d76:	e7a1      	b.n	402cbc <??MACA_Interrupt_9>

00402d78 <??MACA_Interrupt_23>:
  402d78:	0301      	lsls	r1, r0, #12
  402d7a:	420c      	tst	r4, r1
  402d7c:	d003      	beq.n	402d86 <??MACA_Interrupt_24>
  402d7e:	4e0f      	ldr	r6, [pc, #60]	(402dbc <??MACA_Interrupt_1+0x8>)
  402d80:	6830      	ldr	r0, [r6, #0]
  402d82:	2102      	movs	r1, #2
  402d84:	e76d      	b.n	402c62 <??MACA_Interrupt_3>

00402d86 <??MACA_Interrupt_24>:
  402d86:	2190      	movs	r1, #144
  402d88:	0189      	lsls	r1, r1, #6
  402d8a:	420c      	tst	r4, r1
  402d8c:	d004      	beq.n	402d98 <??MACA_Interrupt_25>
  402d8e:	4e0b      	ldr	r6, [pc, #44]	(402dbc <??MACA_Interrupt_1+0x8>)
  402d90:	6831      	ldr	r1, [r6, #0]
  402d92:	4308      	orrs	r0, r1
  402d94:	6030      	str	r0, [r6, #0]
  402d96:	e004      	b.n	402da2 <??MACA_Interrupt_4>

00402d98 <??MACA_Interrupt_25>:
  402d98:	01c0      	lsls	r0, r0, #7
  402d9a:	4204      	tst	r4, r0
  402d9c:	d001      	beq.n	402da2 <??MACA_Interrupt_4>

00402d9e <??MACA_Interrupt_12>:
  402d9e:	f7ff ff09 	bl	402bb4 <ResumeMACASync>

00402da2 <??MACA_Interrupt_4>:
  402da2:	7838      	ldrb	r0, [r7, #0]
  402da4:	1e40      	subs	r0, r0, #1
  402da6:	7038      	strb	r0, [r7, #0]
  402da8:	b001      	add	sp, #4
  402daa:	9804      	ldr	r0, [sp, #16]
  402dac:	bcf0      	pop	{r4, r5, r6, r7}
  402dae:	b001      	add	sp, #4
  402db0:	4700      	bx	r0
  402db2:	46c0      	nop			(mov r8, r8)

00402db4 <??MACA_Interrupt_1>:
  402db4:	800040c0 	.word	0x800040c0
  402db8:	004052ab 	.word	0x004052ab
  402dbc:	004053b8 	.word	0x004053b8
  402dc0:	00001001 	.word	0x00001001
  402dc4:	00000201 	.word	0x00000201

00402dc8 <??DataTable5>:
  402dc8:	8000400c 	.word	0x8000400c

00402dcc <gBuckEnable_c>:
  402dcc:	80003000 	.word	0x80003000
  402dd0:	00000019 	.word	0x00000019
  402dd4:	80003048 	.word	0x80003048
  402dd8:	00000ffb 	.word	0x00000ffb

00402ddc <gBuckByPass_c>:
  402ddc:	80003000 	.word	0x80003000
  402de0:	00000018 	.word	0x00000018
  402de4:	80003048 	.word	0x80003048
  402de8:	00000f04 	.word	0x00000f04
  402dec:	00000000 	.word	0x00000000
  402df0:	000161a8 	.word	0x000161a8
  402df4:	80003048 	.word	0x80003048
  402df8:	00000ffc 	.word	0x00000ffc

00402dfc <gRadioTOCCal2_24MHz_c>:
  402dfc:	80009000 	.word	0x80009000
  402e00:	80050100 	.word	0x80050100

00402e04 <gRadioTOCCal3_c>:
  402e04:	80009400 	.word	0x80009400
  402e08:	00020017 	.word	0x00020017
  402e0c:	80009a04 	.word	0x80009a04
  402e10:	8185a0a4 	.word	0x8185a0a4
  402e14:	80009a00 	.word	0x80009a00
  402e18:	8c900025 	.word	0x8c900025
  402e1c:	00000000 	.word	0x00000000
  402e20:	00011194 	.word	0x00011194
  402e24:	80009a00 	.word	0x80009a00
  402e28:	8c900021 	.word	0x8c900021
  402e2c:	80009a00 	.word	0x80009a00
  402e30:	8c900027 	.word	0x8c900027
  402e34:	00000000 	.word	0x00000000
  402e38:	00011194 	.word	0x00011194
  402e3c:	80009a00 	.word	0x80009a00
  402e40:	8c90002b 	.word	0x8c90002b
  402e44:	80009a00 	.word	0x80009a00
  402e48:	8c90002f 	.word	0x8c90002f
  402e4c:	00000000 	.word	0x00000000
  402e50:	00011194 	.word	0x00011194
  402e54:	80009a00 	.word	0x80009a00
  402e58:	8c900000 	.word	0x8c900000

00402e5c <gRadioTOCCal4_None24MHz_c>:
  402e5c:	80009000 	.word	0x80009000
  402e60:	80050300 	.word	0x80050300

00402e64 <gRadioInit_RegReplacement_c>:
  402e64:	80004118 	.word	0x80004118
  402e68:	00180012 	.word	0x00180012
  402e6c:	80009204 	.word	0x80009204
  402e70:	00000605 	.word	0x00000605
  402e74:	80009208 	.word	0x80009208
  402e78:	00000504 	.word	0x00000504
  402e7c:	8000920c 	.word	0x8000920c
  402e80:	00001111 	.word	0x00001111
  402e84:	80009210 	.word	0x80009210
  402e88:	0fc40000 	.word	0x0fc40000
  402e8c:	80009300 	.word	0x80009300
  402e90:	20046000 	.word	0x20046000
  402e94:	80009304 	.word	0x80009304
  402e98:	4005580c 	.word	0x4005580c
  402e9c:	80009308 	.word	0x80009308
  402ea0:	40075801 	.word	0x40075801
  402ea4:	8000930c 	.word	0x8000930c
  402ea8:	4005d801 	.word	0x4005d801
  402eac:	80009310 	.word	0x80009310
  402eb0:	5a45d800 	.word	0x5a45d800
  402eb4:	80009314 	.word	0x80009314
  402eb8:	4a45d800 	.word	0x4a45d800
  402ebc:	80009318 	.word	0x80009318
  402ec0:	40044000 	.word	0x40044000
  402ec4:	80009380 	.word	0x80009380
  402ec8:	00106000 	.word	0x00106000
  402ecc:	80009384 	.word	0x80009384
  402ed0:	00083806 	.word	0x00083806
  402ed4:	80009388 	.word	0x80009388
  402ed8:	00093807 	.word	0x00093807
  402edc:	8000938c 	.word	0x8000938c
  402ee0:	0009b804 	.word	0x0009b804
  402ee4:	80009390 	.word	0x80009390
  402ee8:	000db800 	.word	0x000db800
  402eec:	80009394 	.word	0x80009394
  402ef0:	00093802 	.word	0x00093802
  402ef4:	8000a008 	.word	0x8000a008
  402ef8:	00000015 	.word	0x00000015
  402efc:	8000a018 	.word	0x8000a018
  402f00:	00000002 	.word	0x00000002
  402f04:	8000a01c 	.word	0x8000a01c
  402f08:	0000000f 	.word	0x0000000f
  402f0c:	80009424 	.word	0x80009424
  402f10:	0000aaa0 	.word	0x0000aaa0
  402f14:	80009434 	.word	0x80009434
  402f18:	01002020 	.word	0x01002020
  402f1c:	80009438 	.word	0x80009438
  402f20:	016800fe 	.word	0x016800fe
  402f24:	8000943c 	.word	0x8000943c
  402f28:	8e578248 	.word	0x8e578248
  402f2c:	80009440 	.word	0x80009440
  402f30:	000000dd 	.word	0x000000dd
  402f34:	80009444 	.word	0x80009444
  402f38:	00000946 	.word	0x00000946
  402f3c:	80009448 	.word	0x80009448
  402f40:	0000035a 	.word	0x0000035a
  402f44:	8000944c 	.word	0x8000944c
  402f48:	00100010 	.word	0x00100010
  402f4c:	80009450 	.word	0x80009450
  402f50:	00000515 	.word	0x00000515
  402f54:	80009460 	.word	0x80009460
  402f58:	00397feb 	.word	0x00397feb
  402f5c:	80009464 	.word	0x80009464
  402f60:	00180358 	.word	0x00180358
  402f64:	8000947c 	.word	0x8000947c
  402f68:	00000455 	.word	0x00000455
  402f6c:	800094e0 	.word	0x800094e0
  402f70:	00000001 	.word	0x00000001
  402f74:	800094e4 	.word	0x800094e4
  402f78:	00020003 	.word	0x00020003
  402f7c:	800094e8 	.word	0x800094e8
  402f80:	00040014 	.word	0x00040014
  402f84:	800094ec 	.word	0x800094ec
  402f88:	00240034 	.word	0x00240034
  402f8c:	800094f0 	.word	0x800094f0
  402f90:	00440144 	.word	0x00440144
  402f94:	800094f4 	.word	0x800094f4
  402f98:	02440344 	.word	0x02440344
  402f9c:	800094f8 	.word	0x800094f8
  402fa0:	04440544 	.word	0x04440544
  402fa4:	80009470 	.word	0x80009470
  402fa8:	0ee7fc00 	.word	0x0ee7fc00
  402fac:	8000981c 	.word	0x8000981c
  402fb0:	00000082 	.word	0x00000082
  402fb4:	80009828 	.word	0x80009828
  402fb8:	0000002a 	.word	0x0000002a

00402fbc <RadioInit>:
  402fbc:	b5f8      	push	{r3, r4, r5, r6, r7, lr}
  402fbe:	0006      	lsls	r6, r0, #0  //maybe platform clock 24000000
  402fc0:	000c      	lsls	r4, r1, #0  //maybe dig clock pn
  402fc2:	0015      	lsls	r5, r2, #0  //maybe loop div
  402fc4:	4f39      	ldr	r7, [pc, #228]	(4030ac <RadioInit+0xf0>)       // set r7 to   *(4030ac: .word	0x004053f0) 004053f0 <gRadioTOCCal2_None24MHz_c>:
  402fc6:	21fa      	movs	r1, #250                                          // r1 gets 250
  402fc8:	0089      	lsls	r1, r1, #2                                        // r1 is 0x1f4 (does this divide 24000000 by 500?)
  402fca:	f7fd fcc1 	bl	400950 <?Veneer (3) for __aeabi_uidivmod>
  402fce:	65b8      	str	r0, [r7, #88]                                     // gRadioTOCCal2_N[88] 0x58
  402fd0:	4837      	ldr	r0, [pc, #220]	(4030b0 <RadioInit+0xf4>)         // r0 gets   4030b0:	016e3600 .word	0x016e3600 = 240000000
  402fd2:	4286      	cmp	r6, r0
  402fd4:	d001      	beq.n	402fda <RadioInit+0x1e>                           // if 24 MHz test for 24MHZ skips to endif
  402fd6:	617c      	str	r4, [r7, #20]                                     // gRadioTOCCal2_N[20] 0x14
  402fd8:	61fd      	str	r5, [r7, #28]                                     // gRadioTOCCal2_N[28] 0x1c
  402fda:	4c36      	ldr	r4, [pc, #216]	(4030b4 <RadioInit+0xf8>)         // else endif 4030b4:    .word	0x00402dcc buck_enable
  402fdc:	4d70      	ldr	r5, [pc, #448]	(4031a0 <fill_ram_struct+0x18>)   // 0x0040544c ram_init_val
  402fde:	7928      	ldrb	r0, [r5, #4]                                      // r0 gets 0
  402fe0:	2801      	cmp	r0, #1                                            // check if its 1 (it's not, it's 0) 
  402fe2:	d106      	bne.n	402ff2 <RadioInit+0x36>                           // and skip stuff (to 2ff2,HERE) assume skip we have 24MHz
  402fe4:	4834      	ldr	r0, [pc, #208]	(4030b8 <RadioInit+0xfc>)         // 4030b8:	.word	0x00000f7b
  402fe6:	6378      	str	r0, [r7, #52]                                     // what's r7? put f7b into gRadioTOCCal2_None24Mhz_c[52] 0x34
  402fe8:	3858      	subs	r0, #88
  402fea:	6368      	str	r0, [r5, #52]                                     // what's r5? maybe ram_init_val[52] 0x34
  402fec:	2110      	movs	r1, #16
  402fee:	0020      	lsls	r0, r4, #0
  402ff0:	e009      	b.n	403006 <RadioInit+0x4a>
  402ff2:	7968      	ldrb	r0, [r5, #5]                                      // HERE: what's r5? looks like ram_init_val[5] i
  402ff4:	2801      	cmp	r0, #1                                            // another test. not one. (it's 0) skip to THERE
  402ff6:	d108      	bne.n	40300a <RadioInit+0x4e>                           // skip to THERE
  402ff8:	4830      	ldr	r0, [pc, #192]	(4030bc <RadioInit+0x100>)        //  4030bc:	00000f7c 	.word	0x00000f7c
  402ffa:	6378      	str	r0, [r7, #52]                                     // put f7c into gRadioTOCCal2_None24Mhz_c[52] 0x34
  402ffc:	3878      	subs	r0, #120
  402ffe:	6368      	str	r0, [r5, #52]                                     // subtract 120 and put it into ram_init_val[52] 0x34
  403000:	2120      	movs	r1, #32                                           
  403002:	0020      	lsls	r0, r4, #0
  403004:	3010      	adds	r0, #16
  403006:	f000 f96d 	bl	4032e4 <SMAC_InitFromMemory>                      // call InitFromMemory with setup vals? 32 bytes of buck_enable+16?
  40300a:	2128      	movs	r1, #40                                           // THERE: chould have come from a skip r1 gets 40
  40300c:	0038      	lsls	r0, r7, #0                                        // r0 is r7 (cal2) r7 base
  40300e:	3030      	adds	r0, #48                                           // now its cal2+48 which is Cal1
  403010:	f000 f968 	bl	4032e4 <SMAC_InitFromMemory>                      // 40 entries of gRadioTOCCal2_None24Mhz+48?//i think this bombs b/c zero...
  403014:	4826      	ldr	r0, [pc, #152]	(4030b0 <RadioInit+0xf4>)         //  4030b0:	016e3600 	.word	0x016e3600
  403016:	4286      	cmp	r6, r0                                            
  403018:	d103      	bne.n	403022 <RadioInit+0x66>                           // another test for 24MHz branch to NEXT: if !=, but they are 
  40301a:	2108      	movs	r1, #8                                            // 8 bytes = 1 entry
  40301c:	0020      	lsls	r0, r4, #0                                        // r4 base
  40301e:	3030      	adds	r0, #48                                           // r4 base+48 (gRadioTOCCal2_24MHz_c)
  403020:	e001      	b.n	403026 <RadioInit+0x6a>                           // goto endif
  403022:	2130      	movs	r1, #48                                           // NEXT: 
  403024:	0038      	lsls	r0, r7, #0                                        // 48 bytes = 6 entries of r7+0
  403026:	f000 f95d 	bl	4032e4 <SMAC_InitFromMemory>                      // endif do the init
  40302a:	2158      	movs	r1, #88                                           // do 11 entries
  40302c:	0020      	lsls	r0, r4, #0                                        // of r4 base + 56
  40302e:	3038      	adds	r0, #56
  403030:	f000 f958 	bl	4032e4 <SMAC_InitFromMemory>                      // do another then do 11 entries from r4+56 0x2e14 (in cal 3)
  403034:	481e      	ldr	r0, [pc, #120]	(4030b0 <RadioInit+0xf4>)
  403036:	4286      	cmp	r6, r0                                            // check for 24MHZ
  403038:	d004      	beq.n	403044 <RadioInit+0x88>                           // branch they are equal
  40303a:	2108      	movs	r1, #8                                            // skip 
  40303c:	0020      	lsls	r0, r4, #0                                        // skip
  40303e:	3090      	adds	r0, #144                                          // skip
  403040:	f000 f950 	bl	4032e4 <SMAC_InitFromMemory>                      
  403044:	2120      	movs	r1, #32                                           // endif: four entries of
  403046:	0028      	lsls	r0, r5, #0
  403048:	3018      	adds	r0, #24                                           // r5+24 RadioCal5
  40304a:	f000 f94b 	bl	4032e4 <SMAC_InitFromMemory>                      // do 32 entries in r5+24 this might be zero...
  40304e:	21ac      	movs	r1, #172
  403050:	0049      	lsls	r1, r1, #1                                        // r1 gets 344
  403052:	0020      	lsls	r0, r4, #0
  403054:	3098      	adds	r0, #152
  403056:	f000 f945 	bl	4032e4 <SMAC_InitFromMemory>                      // do 344 entries from r4+152 0x2e74 (in reg replacment)
  40305a:	20f8      	movs	r0, #248                                          // r0 gets 0xf8
  40305c:	0240      	lsls	r0, r0, #9                                        // r0 is now 0x1F000
  40305e:	f000 f8db 	bl	403218 <SMAC_InitFromFlash>                       // from flash --- this might be the regreplacment since that's in codespace... luckly we can call it directly and IAR links it in. looks like it sets a lot of the ram values that aren't getting set without it 
  403062:	f000 f82f 	bl	4030c4 <SMAC_InitFlybackSettings>                 // looks like this happens... 
  403066:	7928      	ldrb	r0, [r5, #4]                                      // need a dump of r5 ram_init_val now appears to be 0 
  403068:	2801      	cmp	r0, #1
  40306a:	d101      	bne.n	403070 <RadioInit+0xb4>                           // branches
  40306c:	2110      	movs	r1, #16                                           
  40306e:	e004      	b.n	40307a <RadioInit+0xbe>                           
  403070:	7968      	ldrb	r0, [r5, #5]                                      // appears to be 0
  403072:	2801      	cmp	r0, #1                                            
  403074:	d104      	bne.n	403080 <RadioInit+0xc4>                           // branches to 6:
  403076:	2120      	movs	r1, #32
  403078:	3410      	adds	r4, #16
  40307a:	0020      	lsls	r0, r4, #0                                        // 5: 
  40307c:	f000 f932 	bl	4032e4 <SMAC_InitFromMemory>                      // do 4 entries but from r4 of buck bypass 
  403080:	480f      	ldr	r0, [pc, #60]	(4030c0 <RadioInit+0x104>)        // 6:
  403082:	f000 f881 	bl	403188 <fill_ram_struct>                          // and a call to fill ram struct --- maybe important to the program?
  403086:	2400      	movs	r4, #0
  403088:	78e9      	ldrb	r1, [r5, #3]                                      // appears to be 0x4c
  40308a:	0620      	lsls	r0, r4, #24                                       // clobber high 24 bits
  40308c:	0e00      	lsrs	r0, r0, #24               
  40308e:	f000 f86d 	bl	40316c <get_ctov>                                 //v=get_ctov(0,0x4c)
  403092:	1929      	adds	r1, r5, r4                                       // r4 = 0, r5 is &ram_init_val
  403094:	7208      	strb	r0, [r1, #8]                                     
  403096:	1c64      	adds	r4, r4, #1                                       // r4 = r4+1
  403098:	0620      	lsls	r0, r4, #24                                      // clobber high 24 bits
  40309a:	0e00      	lsrs	r0, r0, #24
  40309c:	2810      	cmp	r0, #16                  
  40309e:	d3f3      	bcc.n	403088 <RadioInit+0xcc>                          // branch if 16 > r0 
  4030a0:	b001      	add	sp, #4                                           // return?
  4030a2:	9804      	ldr	r0, [sp, #16]
  4030a4:	bcf0      	pop	{r4, r5, r6, r7}
  4030a6:	b001      	add	sp, #4
  4030a8:	4700      	bx	r0
  4030aa:	46c0      	nop			(mov r8, r8)
  4030ac:	004053f0 	.word	0x004053f0
  4030b0:	016e3600 	.word	0x016e3600
  4030b4:	00402dcc 	.word	0x00402dcc
  4030b8:	00000f7b 	.word	0x00000f7b
  4030bc:	00000f7c 	.word	0x00000f7c
  4030c0:	004052a0 	.word	0x004052a0

004030c4 <SMAC_InitFlybackSettings>:
  4030c4:	4806      	ldr	r0, [pc, #24]	(4030e0 <SMAC_InitFlybackSettings+0x1c>) // r0 gets base 0x80009a00
  4030c6:	6881      	ldr	r1, [r0, #8]                                             // r1 gets *(0x80009a08)
  4030c8:	4806      	ldr	r0, [pc, #24]	(4030e4 <SMAC_InitFlybackSettings+0x20>) // r0 gets 0x0000f7df
  4030ca:	4308      	orrs	r0, r1                                                   // or them, r0 has it
  4030cc:	4904      	ldr	r1, [pc, #16]	(4030e0 <SMAC_InitFlybackSettings+0x1c>) // r1 gets base 0x80009a00
  4030ce:	6088      	str	r0, [r1, #8]     // put r0 into 0x80009a08
  4030d0:	0008      	lsls	r0, r1, #0       // r0 gets r1, r0 is the base now
  4030d2:	4905      	ldr	r1, [pc, #20]	(4030e8 <SMAC_InitFlybackSettings+0x24>) // r1 gets 0x00ffffff
  4030d4:	60c1      	str	r1, [r0, #12]   // r1 gets base+12
  4030d6:	0b09      	lsrs	r1, r1, #12     // r1 << 12
  4030d8:	6101      	str	r1, [r0, #16]   // put r1 base+16
  4030da:	2110      	movs	r1, #16         // r1 gets 16
  4030dc:	6001      	str	r1, [r0, #0]    // put r1 in the base
  4030de:	4770      	bx	lr              // return
  4030e0:	80009a00 	.word	0x80009a00
  4030e4:	0000f7df 	.word	0x0000f7df
  4030e8:	00ffffff 	.word	0x00ffffff

004030ec <SetChannel>:
  4030ec:	b430      	push	{r4, r5}        //r0 = chan_num r1=vcodivI r2=vcodivF
  4030ee:	4b1d      	ldr	r3, [pc, #116]	(403164 <GetCurrentChannel+0x38>)
  4030f0:	681c      	ldr	r4, [r3, #0]    //r4 = *0x80009800
  4030f2:	4d1d      	ldr	r5, [pc, #116]	(403168 <GetCurrentChannel+0x3c>) //0xbfffffff
  4030f4:	4025      	ands	r5, r4          // r5 = *0x80009800 & 0xbfffffff
  4030f6:	601d      	str	r5, [r3, #0]    // *0x80009800 = r5
  4030f8:	60d9      	str	r1, [r3, #12]   // *0x80009800+12 = r3
  4030fa:	611a      	str	r2, [r3, #16]   // *0x80009800+16 = r2
  4030fc:	6b19      	ldr	r1, [r3, #48]   // r1 = *0x80009800+48
  4030fe:	2202      	movs	r2, #2          // r2 = 2
  403100:	430a      	orrs	r2, r1          // r2 = r1 | 2
  403102:	631a      	str	r2, [r3, #48]   // *0x80009800+48 = r2 
  403104:	6b19      	ldr	r1, [r3, #48]   // r1 = *0x80009800+48
  403106:	2204      	movs	r2, #4          // r2 = 4;
  403108:	430a      	orrs	r2, r1          // r2 = r1 | 4
  40310a:	631a      	str	r2, [r3, #48]   // // *0x80009800+48 = r2 
  40310c:	0011      	lsls	r1, r2, #0      // r1 = r2
  40310e:	4a06      	ldr	r2, [pc, #24]	(403128 <SetChannel+0x3c>) r2 = 0xffffe0ff;
  403110:	400a      	ands	r2, r1          // r2 = r1 & 0xffffe0ff;
  403112:	4923      	ldr	r1, [pc, #140]	(4031a0 <fill_ram_struct+0x18>) // r1 gets &ram_init_val
  403114:	1808      	adds	r0, r1, r0      // offset
  403116:	7a00      	ldrb	r0, [r0, #8]    // r0 gets ram_init_val+8+offset = buffer_radio_init[offset]
  403118:	0200      	lsls	r0, r0, #8      // shift that left 8
  40311a:	21f8      	movs	r1, #248        // r1 = 248
  40311c:	0149      	lsls	r1, r1, #5      // r1 = 0x1F00
  40311e:	4001      	ands	r1, r0          // r1 gets r0 & 0x1F00
  403120:	4311      	orrs	r1, r2          // ored with r2 
  403122:	6319      	str	r1, [r3, #48]   // r3+48 gets r1... 0x80009800+48
  403124:	bc30      	pop	{r4, r5}
  403126:	4770      	bx	lr
  403128:	ffffe0ff 	.word	0xffffe0ff

0040312c <GetCurrentChannel>:
  40312c:	b430      	push	{r4, r5}
  40312e:	0002      	lsls	r2, r0, #0
  403130:	20ff      	movs	r0, #255
  403132:	2300      	movs	r3, #0
  403134:	5cd4      	ldrb	r4, [r2, r3]
  403136:	4d0a      	ldr	r5, [pc, #40]	(403160 <GetCurrentChannel+0x34>)
  403138:	682d      	ldr	r5, [r5, #0]
  40313a:	42ac      	cmp	r4, r5
  40313c:	d107      	bne.n	40314e <GetCurrentChannel+0x22>
  40313e:	009c      	lsls	r4, r3, #2
  403140:	590c      	ldr	r4, [r1, r4]
  403142:	4d07      	ldr	r5, [pc, #28]	(403160 <GetCurrentChannel+0x34>)
  403144:	686d      	ldr	r5, [r5, #4]
  403146:	42ac      	cmp	r4, r5
  403148:	d101      	bne.n	40314e <GetCurrentChannel+0x22>
  40314a:	0018      	lsls	r0, r3, #0
  40314c:	e004      	b.n	403158 <GetCurrentChannel+0x2c>
  40314e:	1c5b      	adds	r3, r3, #1
  403150:	061c      	lsls	r4, r3, #24
  403152:	0e24      	lsrs	r4, r4, #24
  403154:	2c10      	cmp	r4, #16
  403156:	d3ed      	bcc.n	403134 <GetCurrentChannel+0x8>
  403158:	0600      	lsls	r0, r0, #24
  40315a:	0e00      	lsrs	r0, r0, #24
  40315c:	bc30      	pop	{r4, r5}
  40315e:	4770      	bx	lr
  403160:	8000980c 	.word	0x8000980c
  403164:	80009800 	.word	0x80009800
  403168:	bfffffff 	.wor	0xbfffffff

0040316c <get_ctov>:
  40316c:	4a04      	ldr	r2, [pc, #16]	(403180 <get_ctov+0x14>) r2=0x00dfbe77
  40316e:	4350      	muls	r0, r2             
  403170:	0589      	lsls	r1, r1, #22
  403172:	1840      	adds	r0, r0, r1
  403174:	4903      	ldr	r1, [pc, #12]	(403184 <get_ctov+0x18>)
  403176:	1840      	adds	r0, r0, r1
  403178:	1640      	asrs	r0, r0, #25
  40317a:	0600      	lsls	r0, r0, #24
  40317c:	0e00      	lsrs	r0, r0, #24
  40317e:	4770      	bx	lr
  403180:	00dfbe77 	.word	0x00dfbe77
  403184:	023126e9 	.word	0x023126e9

00403188 <fill_ram_struct>:
  403188:	4905      	ldr	r1, [pc, #20]	(4031a0 <fill_ram_struct+0x18>)
  40318a:	7802      	ldrb	r2, [r0, #0]
  40318c:	700a      	strb	r2, [r1, #0]
  40318e:	7842      	ldrb	r2, [r0, #1]
  403190:	704a      	strb	r2, [r1, #1]
  403192:	7882      	ldrb	r2, [r0, #2]
  403194:	708a      	strb	r2, [r1, #2]
  403196:	1cc0      	adds	r0, r0, #3
  403198:	7800      	ldrb	r0, [r0, #0]
  40319a:	70c8      	strb	r0, [r1, #3]
  40319c:	4770      	bx	lr
  40319e:	0000      	lsls	r0, r0, #0
  4031a0:	0040544c 	.word	0x0040544c

004031a4 <SMAC_InitExecuteEntry>:
  4031a4:	6801      	ldr	r1, [r0, #0]    // r1 gets where r0 points    r1 = *r0
  4031a6:	1d00      	adds	r0, r0, #4      // increment pointer by 4 bytes   r0 += 4
  4031a8:	4a17      	ldr	r2, [pc, #92]	(403208 <SMAC_InitExecuteEntry+0x64>) //r2 gets 403208:	00140001 	.word	0x00140001
  4031aa:	4291      	cmp	r1, r2          // compare r1 with r2
  4031ac:	d303      	bcc.n	4031b6 <SMAC_InitExecuteEntry+0x12> //branch to 1: if lower
  4031ae:	6800      	ldr	r0, [r0, #0]    // get where r0+4 points
  4031b0:	6008      	str	r0, [r1, #0]    // store that where r1 points (load an addr/data pair like 80009000 aabbccddeeff) 
  4031b2:	2002      	movs	r0, #2          // r0 gets 2
  4031b4:	4770      	bx	lr              // return
  4031b6:	2910      	cmp	r1, #16          // 1: compare r1 and 16
  4031b8:	d215      	bcs.n	4031e6 <SMAC_InitExecuteEntry+0x42> // branch to 2: if high or equal 
  4031ba:	2900      	cmp	r1, #0                              // check if zero (r1 is address?)
  4031bc:	d106      	bne.n	4031cc <SMAC_InitExecuteEntry+0x28> // branch to 3: to if != 0 
  4031be:	6800      	ldr	r0, [r0, #0]                        // if == 0 do delay
  4031c0:	0880      	lsrs	r0, r0, #2
  4031c2:	0001      	lsls	r1, r0, #0
  4031c4:	1e48      	subs	r0, r1, #1
  4031c6:	2900      	cmp	r1, #0
  4031c8:	d1fb      	bne.n	4031c2 <SMAC_InitExecuteEntry+0x1e>
  4031ca:	e7f2      	b.n	4031b2 <SMAC_InitExecuteEntry+0xe>  
  4031cc:	2901      	cmp	r1, #1                              // 3: at this point r1 is between 1 and 15 inclusive
  4031ce:	d118      	bne.n	403202 <SMAC_InitExecuteEntry+0x5e> // if !=1 return
  4031e2:	2004      	movs	r0, #4   // return 4 bytes processed
  4031e4:	4770      	bx	lr

0x00000001  command
0xaaaaaaaa
0xbbbbbbbb
0xcccccccc

  4031d0:	6802      	ldr	r2, [r0, #0]                        // r2 = 0xaaaaaaaa
  4031d2:	6841      	ldr	r1, [r0, #4]                        // r1 = 0xbbbbbbbb
  4031d4:	3008      	adds	r0, #8                              // r0 points to c
  4031d6:	680b      	ldr	r3, [r1, #0]                        // r3 = *0xbbbbbbbb
  4031d8:	4393      	bics	r3, r2                              // r3 = *0xbbbbbbbb & ~(0xaaaaaaaa)
  4031da:	6800      	ldr	r0, [r0, #0]                        // r0 = 0xcccccccc
  4031dc:	4002      	ands	r2, r0                              // r2 &= r0
  4031de:	431a      	orrs	r2, r3                              // r2 = (0xaaaaaaaa & 0xcccccccc) | (*0xbbbbbbbb & ~(0xaaaaaaaa))
  4031e0:	600a      	str	r2, [r1, #0]                        // store back in B

uint32_t buf[]
if (buf[0] == 0x00000001) {
   *buf[2] = (*buf[2] & ~buf[1]) | (buf[3] & buf[1]);
}

  4031e6:	4a09      	ldr	r2, [pc, #36]	(40320c <SMAC_InitExecuteEntry+0x68>) //2: r2=0x0000fff1
  4031e8:	4291      	cmp	r1, r2           // r1 >=16
  4031ea:	d20a      	bcs.n	403202 <SMAC_InitExecuteEntry+0x5e> // if r1 >= 0xfff1 then return 0
  4031ec:	4a08      	ldr	r2, [pc, #32]	(403210 <SMAC_InitExecuteEntry+0x6c>)
  4031ee:	4291      	cmp	r1, r2           // 
  4031f0:	d007      	beq.n	403202 <SMAC_InitExecuteEntry+0x5e> if 0xe0f (end of file) return 0
  4031f2:	0909      	lsrs	r1, r1, #4      // r1 = r1>>4
  4031f4:	1e49      	subs	r1, r1, #1      // r1 = r1 - 1
  4031f6:	0609      	lsls	r1, r1, #24     // mask 
  4031f8:	0e09      	lsrs	r1, r1, #24
  4031fa:	4a06      	ldr	r2, [pc, #24]	(403214 <SMAC_InitExecuteEntry+0x70>) r2 = &u8RamValues
  4031fc:	6800      	ldr	r0, [r0, #0]    // r0 = next value in buffer  2nd half of pair
  4031fe:	5450      	strb	r0, [r2, r1]    // store this in u8RamValues
  403200:	e7d7      	b.n	4031b2 <SMAC_InitExecuteEntry+0xe> // return 2
  403202:	2000      	movs	r0, #0           // return 0
  403204:	4770      	bx	lr
  403206:	46c0      	nop			(mov r8, r8)
  403208:	00140001 	.word	0x00140001
  40320c:	0000fff1 	.word	0x0000fff1
  403210:	00000e0f 	.word	0x00000e0f
  403214:	004052a0 	.word	0x004052a0

00403218 <SMAC_InitFromFlash>:
  403218:	b570      	push	{r4, r5, r6, lr}
  40321a:	b08a      	sub	sp, #40
  40321c:	0006      	lsls	r6, r0, #0    // r6 gets r0 has 0x1F000 from call in radioinit
  40321e:	a804      	add	r0, sp, #16   // r0 now points sp+16
  403220:	2102      	movs	r1, #2        // r1 = 2
  403222:	7001      	strb	r1, [r0, #0]  // put 2 on the stack
  403224:	2101      	movs	r1, #1        // 
  403226:	7101      	strb	r1, [r0, #4]  // put 1 on the stack
  403228:	f400 fce4 	bl	3bf4 <CRM_VRegCntl> // call to ROM: I assume this turns on the NVM reg
  40322c:	482b      	ldr	r0, [pc, #172]	(4032dc <SMAC_InitFromFlash+0xc4>) r0 = &u32SystemClock
  40322e:	6800      	ldr	r0, [r0, #0]  // r0 = u32SystemClock
  403230:	2107      	movs	r1, #7        // r1 = 7
  403232:	f7fd fb8d 	bl	400950 <?Veneer (3) for __aeabi_uidivmod> //divide clock by 7?
  403236:	9001      	str	r0, [sp, #4]
  403238:	9801      	ldr	r0, [sp, #4]       // loop: r0 has result
  40323a:	1e41      	subs	r1, r0, #1         // r1 = result - 1
  40323c:	9101      	str	r1, [sp, #4]       // r1 goes on the stack
  40323e:	2800      	cmp	r0, #0             // check if it's 0
  403240:	d1fa      	bne.n	403238 <SMAC_InitFromFlash+0x20> //go to loop if not zero, delay for vreg
  403242:	4669      	mov	r1, sp
  403244:	f403 fd38 	bl	6cb8 <NVM_Detect>  //call to ROM, looks like it returns 0 on fail and a pointer otherwise
  403248:	2800      	cmp	r0, #0             //0?
  40324a:	d103      	bne.n	403254 <SMAC_InitFromFlash+0x3c> // branch to return0:
  40324c:	4668      	mov	r0, sp
  40324e:	7800      	ldrb	r0, [r0, #0]       // r0 gets where the return value points
  403250:	2800      	cmp	r0, #0             // return 0 if 0
  403252:	d101      	bne.n	403258 <SMAC_InitFromFlash+0x40> //otherwise branch to 1:
  403254:	2000      	movs	r0, #0             //return0:
  403256:	e03e      	b.n	4032d6 <SMAC_InitFromFlash+0xbe> // branch to exit:
  403258:	2000      	movs	r0, #0             //1: r0 = 0
  40325a:	f403 ff13 	bl	7084 <NVM_SetSVar> //call to ROM: might need to dump this one...
  40325e:	2008      	movs	r0, #8             // r0 gets 8;
  403260:	b501      	push	{r0, lr}           // looks like stack setup for call to NVM_Read
  403262:	0033      	lsls	r3, r6, #0
  403264:	aa04      	add	r2, sp, #16        //pDest dump this!
  403266:	a802      	add	r0, sp, #8
  403268:	7801      	ldrb	r1, [r0, #0]       //nvmType
  40326a:	2000      	movs	r0, #0             //nvmInterface
//extern nvmErr_t NVM_Read(nvmInterface_t nvmInterface , nvmType_t nvmType , void *pDest, uint32_t address, uint32_t numBytes);
  40326c:	f403 fd7c 	bl	6d68 <NVM_Read>
  403270:	b002      	add	sp, #8           
  403272:	2800      	cmp	r0, #0             // did it return 0?
  403274:	d109      	bne.n	40328a <SMAC_InitFromFlash+0x72> //if != branch to 2: 
  403276:	9802      	ldr	r0, [sp, #8]      //r0 gets something on the stack
  403278:	4919      	ldr	r1, [pc, #100]	(4032e0 <SMAC_InitFromFlash+0xc8>) //r1 = 0x00000abc
  40327a:	4288      	cmp	r0, r1
  40327c:	d105      	bne.n	40328a <SMAC_InitFromFlash+0x72> //branch to 2: if !=
  40327e:	a802      	add	r0, sp, #8
  403280:	88c1      	ldrh	r1, [r0, #6]    // sp+8 0x00000abc   sp+12 0x0100 03fc   r1 = 0x0100 = 256
  403282:	22ff      	movs	r2, #255
  403284:	1c92      	adds	r2, r2, #2
  403286:	4291      	cmp	r1, r2   // compare r1 to 257
  403288:	d303      	bcc.n	403292 <SMAC_InitFromFlash+0x7a>  // if r1 < 257 (it is) goto 3:
  40328a:	2001      	movs	r0, #1           // 2: if r1 > 256 lock flash and return 0
  40328c:	f403 fefa 	bl	7084 <NVM_SetSVar>
  403290:	e7e0      	b.n	403254 <SMAC_InitFromFlash+0x3c>

  403292:	2408      	movs	r4, #8            // 3:    r4 = 8
  403294:	8885      	ldrh	r5, [r0, #4] 	  // r5 = 0x03fc
  403296:	1f2d      	subs	r5, r5, #4	  // r5 = r5 - 4 = 0x03f8
  403298:	e006      	b.n	4032a8 <SMAC_InitFromFlash+0x90>  // goto 4:

// top of loop
  40329a:	a806      	add	r0, sp, #24
  40329c:	f7ff ff82 	bl	4031a4 <SMAC_InitExecuteEntry>  // so it looks like flash has entries it exectues... 
  4032a0:	2800      	cmp	r0, #0
  4032a2:	d00f      	beq.n	4032c4 <SMAC_InitFromFlash+0xac>  // if executeentry returned 0, goto 6:
  4032a4:	0080      	lsls	r0, r0, #2  // r0 = return value from executeentry * 4
  4032a6:	1824      	adds	r4, r4, r0  // add number of bytes executed to r4

  4032a8:	42ac      	cmp	r4, r5      // 4:    if r4 >= r5  goto unlock_exit
  4032aa:	d210      	bcs.n	4032ce <SMAC_InitFromFlash+0xb6>

  4032ac:	2010      	movs	r0, #16    // 16 bytes  = 4 commands
  4032ae:	b501      	push	{r0, lr}
  4032b0:	1933      	adds	r3, r6, r4   // r6=0x1f000 + r4 offset
  4032b2:	aa08      	add	r2, sp, #32  // buffer is on the stack
  4032b4:	a802      	add	r0, sp, #8
  4032b6:	7801      	ldrb	r1, [r0, #0]  // type from nv_detect
  4032b8:	2000      	movs	r0, #0  // arg0
  4032ba:	f403 fd55 	bl	6d68 <NVM_Read>
// err = nvm_read(gNvmInternalInterface_c, type, (uint8_t *)buf, 0x1F000, NBYTES);


  4032be:	b002      	add	sp, #8
  4032c0:	2800      	cmp	r0, #0
  4032c2:	d0ea      	beq.n	40329a <SMAC_InitFromFlash+0x82>  // if it worked, goto top of loop
  4032c4:	2001      	movs	r0, #1  // 6:  lock and return
  4032c6:	f403 fedd 	bl	7084 <NVM_SetSVar>
  4032ca:	0020      	lsls	r0, r4, #0
  4032cc:	e003      	b.n	4032d6 <SMAC_InitFromFlash+0xbe>


  4032ce:	2001      	movs	r0, #1  // 5:
  4032d0:	f403 fed8 	bl	7084 <NVM_SetSVar>
  4032d4:	1d20      	adds	r0, r4, #4
  4032d6:	b00a      	add	sp, #40    //exit:
  4032d8:	e01c      	b.n	403314 <SMAC_InitFromMemory+0x30>
  4032da:	46c0      	nop			(mov r8, r8)
  4032dc:	00405448 	.word	0x00405448
  4032e0:	00000abc 	.word	0x00000abc

// 000 entries exit initfrom memory

004032e4 <SMAC_InitFromMemory>:
  4032e4:	b570      	push	{r4, r5, r6, lr}
  4032e6:	0005      	lsls	r5, r0, #0                        // r5 is first arg
  4032e8:	000c      	lsls	r4, r1, #0                        // r4 is second arg
  4032ea:	2600      	movs	r6, #0                            // r6 gets 0
  4032ec:	2d00      	cmp	r5, #0                            // if r5 is zero
  4032ee:	d001      	beq.n	4032f4 <SMAC_InitFromMemory+0x10> // then branch to 1
  4032f0:	0760      	lsls	r0, r4, #29                       // else r4<<29 what does this do to z? some kind of bounds check? max size check? 
  4032f2:	d002      	beq.n	4032fa <SMAC_InitFromMemory+0x16> // branch to 2: if z is set 
  4032f4:	2000      	movs	r0, #0                            // 1: r0 get 0
  4032f6:	e00c      	b.n	403312 <SMAC_InitFromMemory+0x2e> // goto end:
  4032f8:	1836      	adds	r6, r6, r0                        // loop: r6 = r6 + r0
  4032fa:	08a0      	lsrs	r0, r4, #2                        // 2: r0 = r4 >> 2 r0 has the size/4?
  4032fc:	4286      	cmp	r6, r0                            // compare r6 and r0
  4032fe:	d207      	bcs.n	403310 <SMAC_InitFromMemory+0x2c> // branch to 3: if higher or same //another bounds check?
  403300:	00b0      	lsls	r0, r6, #2                        // r0 = r6 << 2 //align check?
  403302:	1828      	adds	r0, r5, r0                        // r0 = r5 + r0 //r0 has base plus current offset.. maybe
  403304:	f7ff ff4e 	bl	4031a4 <SMAC_InitExecuteEntry>    // call InitExecturEntry (maybe this does the copy?) //do the entry
  403308:	2800      	cmp	r0, #0                            // compare r0 to 0
  40330a:	d1f5      	bne.n	4032f8 <SMAC_InitFromMemory+0x14> // if not 0 branch to loop: 
  40330c:	0030      	lsls	r0, r6, #0                        // r0 = r6
  40330e:	e000      	b.n	403312 <SMAC_InitFromMemory+0x2e> // goto end:
  403310:	00b0      	lsls	r0, r6, #2                        // 3: r0 = r6 << 2
  403312:	46c0      	nop			(mov r8, r8)      // end:
  403314:	9903      	ldr	r1, [sp, #12]
  403316:	bc70      	pop	{r4, r5, r6}
  403318:	b001      	add	sp, #4
  40331a:	4708      	bx	r1

0040331c <?Veneer (3) for UartOpen>:
  40331c:	b408      	push	{r3}
  40331e:	4b02      	ldr	r3, [pc, #8]	(403328 <?Veneer (3) for UartOpen+0xc>)
  403320:	469c      	mov	ip, r3
  403322:	bc08      	pop	{r3}
  403324:	4760      	bx	ip
  403326:	46c0      	nop			(mov r8, r8)
  403328:	00002c4d 	.word	0x00002c4d

0040332c <?Veneer (3) for UartSetConfig>:
  40332c:	b408      	push	{r3}
  40332e:	4b02      	ldr	r3, [pc, #8]	(403338 <?Veneer (3) for UartSetConfig+0xc>)
  403330:	469c      	mov	ip, r3
  403332:	bc08      	pop	{r3}
  403334:	4760      	bx	ip
  403336:	46c0      	nop			(mov r8, r8)
  403338:	00002ccd 	.word	0x00002ccd

0040333c <?Veneer (3) for UartSetTransmitterThreshold>:
  40333c:	b408      	push	{r3}
  40333e:	4b02      	ldr	r3, [pc, #8]	(403348 <?Veneer (3) for UartSetTransmitterThreshold+0xc>)
  403340:	469c      	mov	ip, r3
  403342:	bc08      	pop	{r3}
  403344:	4760      	bx	ip
  403346:	46c0      	nop			(mov r8, r8)
  403348:	00002f21 	.word	0x00002f21

0040334c <?Veneer (3) for UartSetReceiverThreshold>:
  40334c:	b408      	push	{r3}
  40334e:	4b02      	ldr	r3, [pc, #8]	(403358 <?Veneer (3) for UartSetReceiverThreshold+0xc>)
  403350:	469c      	mov	ip, r3
  403352:	bc08      	pop	{r3}
  403354:	4760      	bx	ip
  403356:	46c0      	nop			(mov r8, r8)
  403358:	00002e59 	.word	0x00002e59

0040335c <?Veneer (3) for UartSetCallbackFunctions>:
  40335c:	b408      	push	{r3}
  40335e:	4b02      	ldr	r3, [pc, #8]	(403368 <?Veneer (3) for UartSetCallbackFunctions+0xc>)
  403360:	469c      	mov	ip, r3
  403362:	bc08      	pop	{r3}
  403364:	4760      	bx	ip
  403366:	46c0      	nop			(mov r8, r8)
  403368:	00002f71 	.word	0x00002f71

0040336c <?Veneer (3) for UartReadData>:
  40336c:	b408      	push	{r3}
  40336e:	4b02      	ldr	r3, [pc, #8]	(403378 <?Veneer (3) for UartReadData+0xc>)
  403370:	469c      	mov	ip, r3
  403372:	bc08      	pop	{r3}
  403374:	4760      	bx	ip
  403376:	46c0      	nop			(mov r8, r8)
  403378:	00002fb9 	.word	0x00002fb9

0040337c <?Veneer (3) for UartWriteData>:
  40337c:	b408      	push	{r3}
  40337e:	4b02      	ldr	r3, [pc, #8]	(403388 <?Veneer (3) for UartWriteData+0xc>)
  403380:	469c      	mov	ip, r3
  403382:	bc08      	pop	{r3}
  403384:	4760      	bx	ip
  403386:	46c0      	nop			(mov r8, r8)
  403388:	00003079 	.word	0x00003079

0040338c <Uart_Init>:
  40338c:	b510      	push	{r4, lr}
  40338e:	b084      	sub	sp, #16
  403390:	0004      	lsls	r4, r0, #0
  403392:	f000 f841 	bl	403418 <GpioUart1Init>
  403396:	2000      	movs	r0, #0
  403398:	a902      	add	r1, sp, #8
  40339a:	8088      	strh	r0, [r1, #4]
  40339c:	2296      	movs	r2, #150
  40339e:	0212      	lsls	r2, r2, #8
  4033a0:	9202      	str	r2, [sp, #8]
  4033a2:	80c8      	strh	r0, [r1, #6]
  4033a4:	4918      	ldr	r1, [pc, #96]	(403408 <??Uart_Init_0>)
  4033a6:	2001      	movs	r0, #1
  4033a8:	f40c fdbc 	bl	ff24 <IntAssignHandler>
  4033ac:	2100      	movs	r1, #0
  4033ae:	2001      	movs	r0, #1
  4033b0:	f40c fd9a 	bl	fee8 <ITC_SetPriority>
  4033b4:	2001      	movs	r0, #1
  4033b6:	f40c fe05 	bl	ffc4 <ITC_EnableInterrupt>
  4033ba:	4914      	ldr	r1, [pc, #80]	(40340c <??Uart_Init_0+0x4>)
  4033bc:	2000      	movs	r0, #0
  4033be:	f7ff ffad 	bl	40331c <?Veneer (3) for UartOpen>
  4033c2:	a902      	add	r1, sp, #8
  4033c4:	2000      	movs	r0, #0
  4033c6:	f7ff ffb1 	bl	40332c <?Veneer (3) for UartSetConfig>
  4033ca:	2105      	movs	r1, #5
  4033cc:	2000      	movs	r0, #0
  4033ce:	f7ff ffb5 	bl	40333c <?Veneer (3) for UartSetTransmitterThreshold>
  4033d2:	2105      	movs	r1, #5
  4033d4:	2000      	movs	r0, #0
  4033d6:	f7ff ffb9 	bl	40334c <?Veneer (3) for UartSetReceiverThreshold>
  4033da:	480d      	ldr	r0, [pc, #52]	(403410 <??Uart_Init_0+0x8>)
  4033dc:	9001      	str	r0, [sp, #4]
  4033de:	480d      	ldr	r0, [pc, #52]	(403414 <??Uart_Init_0+0xc>)
  4033e0:	9000      	str	r0, [sp, #0]
  4033e2:	4669      	mov	r1, sp
  4033e4:	2000      	movs	r0, #0
  4033e6:	f7ff ffb9 	bl	40335c <?Veneer (3) for UartSetCallbackFunctions>
  4033ea:	2000      	movs	r0, #0
  4033ec:	f7fd fa90 	bl	400910 <?Veneer (3) for IntRestoreIRQ>
  4033f0:	2301      	movs	r3, #1
  4033f2:	2204      	movs	r2, #4
  4033f4:	0021      	lsls	r1, r4, #0
  4033f6:	2000      	movs	r0, #0
  4033f8:	f7ff ffb8 	bl	40336c <?Veneer (3) for UartReadData>
  4033fc:	b004      	add	sp, #16
  4033fe:	9801      	ldr	r0, [sp, #4]
  403400:	bc10      	pop	{r4}
  403402:	b001      	add	sp, #4
  403404:	4700      	bx	r0
  403406:	46c0      	nop			(mov r8, r8)

00403408 <??Uart_Init_0>:
  403408:	00003275 	.word	0x00003275
  40340c:	00005dc0 	.word	0x00005dc0
  403410:	0040346f 	.word	0x0040346f
  403414:	0040346d 	.word	0x0040346d

00403418 <GpioUart1Init>:
  403418:	20a0      	movs	r0, #160
  40341a:	0280      	lsls	r0, r0, #10
  40341c:	4912      	ldr	r1, [pc, #72]	(403468 <??DataTable8>)
  40341e:	6a09      	ldr	r1, [r1, #32]
  403420:	4301      	orrs	r1, r0
  403422:	4a11      	ldr	r2, [pc, #68]	(403468 <??DataTable8>)
  403424:	6211      	str	r1, [r2, #32]
  403426:	0011      	lsls	r1, r2, #0
  403428:	680a      	ldr	r2, [r1, #0]
  40342a:	4302      	orrs	r2, r0
  40342c:	600a      	str	r2, [r1, #0]
  40342e:	6989      	ldr	r1, [r1, #24]
  403430:	4a0c      	ldr	r2, [pc, #48]	(403464 <??GpioUart1Init_0>)
  403432:	400a      	ands	r2, r1
  403434:	490c      	ldr	r1, [pc, #48]	(403468 <??DataTable8>)
  403436:	618a      	str	r2, [r1, #24]
  403438:	6508      	str	r0, [r1, #80]
  40343a:	0008      	lsls	r0, r1, #0
  40343c:	21a0      	movs	r1, #160
  40343e:	0249      	lsls	r1, r1, #9
  403440:	6481      	str	r1, [r0, #72]
  403442:	6880      	ldr	r0, [r0, #8]
  403444:	0100      	lsls	r0, r0, #4
  403446:	0900      	lsrs	r0, r0, #4
  403448:	4907      	ldr	r1, [pc, #28]	(403468 <??DataTable8>)
  40344a:	22a0      	movs	r2, #160
  40344c:	05d2      	lsls	r2, r2, #23
  40344e:	4302      	orrs	r2, r0
  403450:	608a      	str	r2, [r1, #8]
  403452:	68c8      	ldr	r0, [r1, #12]
  403454:	210f      	movs	r1, #15
  403456:	4388      	bics	r0, r1
  403458:	4903      	ldr	r1, [pc, #12]	(403468 <??DataTable8>)
  40345a:	2205      	movs	r2, #5
  40345c:	4302      	orrs	r2, r0
  40345e:	60ca      	str	r2, [r1, #12]
  403460:	4770      	bx	lr
  403462:	46c0      	nop			(mov r8, r8)

00403464 <??GpioUart1Init_0>:
  403464:	fffd7fff 	.word	0xfffd7fff

00403468 <??DataTable8>:
  403468:	80000010 	.word	0x80000010

0040346c <UartEventRead1>:
  40346c:	e000      	b.n	403470 <UartEventRead2>

0040346e <UartEventWrite1>:
  40346e:	4770      	bx	lr

00403470 <UartEventRead2>:
  403470:	4915      	ldr	r1, [pc, #84]	(4034c8 <??DataTable11>)
  403472:	2201      	movs	r2, #1
  403474:	704a      	strb	r2, [r1, #1]
  403476:	8842      	ldrh	r2, [r0, #2]
  403478:	804a      	strh	r2, [r1, #2]
  40347a:	7800      	ldrb	r0, [r0, #0]
  40347c:	7008      	strb	r0, [r1, #0]
  40347e:	4770      	bx	lr

00403480 <Uart_Print>:
  403480:	b579      	push	{r0, r3, r4, r5, r6, lr}
  403482:	b082      	sub	sp, #8
  403484:	2500      	movs	r5, #0
  403486:	2696      	movs	r6, #150
  403488:	0076      	lsls	r6, r6, #1

0040348a <??Uart_Print_0>:
  40348a:	9902      	ldr	r1, [sp, #8]
  40348c:	1948      	adds	r0, r1, r5
  40348e:	7801      	ldrb	r1, [r0, #0]
  403490:	2900      	cmp	r1, #0
  403492:	d013      	beq.n	4034bc <??Uart_Print_1>
  403494:	4669      	mov	r1, sp
  403496:	7800      	ldrb	r0, [r0, #0]
  403498:	7008      	strb	r0, [r1, #0]
  40349a:	1c6d      	adds	r5, r5, #1
  40349c:	062d      	lsls	r5, r5, #24
  40349e:	0e2d      	lsrs	r5, r5, #24
  4034a0:	2400      	movs	r4, #0

004034a2 <??Uart_Print_2>:
  4034a2:	2201      	movs	r2, #1
  4034a4:	4669      	mov	r1, sp
  4034a6:	2000      	movs	r0, #0
  4034a8:	f7ff ff68 	bl	40337c <?Veneer (3) for UartWriteData>
  4034ac:	2800      	cmp	r0, #0
  4034ae:	d0ec      	beq.n	40348a <??Uart_Print_0>
  4034b0:	42b4      	cmp	r4, r6
  4034b2:	d2ea      	bcs.n	40348a <??Uart_Print_0>
  4034b4:	1c64      	adds	r4, r4, #1
  4034b6:	0424      	lsls	r4, r4, #16
  4034b8:	0c24      	lsrs	r4, r4, #16
  4034ba:	e7f2      	b.n	4034a2 <??Uart_Print_2>

004034bc <??Uart_Print_1>:
  4034bc:	b004      	add	sp, #16
  4034be:	9803      	ldr	r0, [sp, #12]
  4034c0:	bc70      	pop	{r4, r5, r6}
  4034c2:	b001      	add	sp, #4
  4034c4:	4700      	bx	r0
	...

004034c8 <??DataTable11>:
  4034c8:	004052a4 	.word	0x004052a4

004034cc <?Veneer (0) for RP_Vector_Init>:
  4034cc:	e59fc000 	ldr	ip, [pc, #0]	; 4034d4 <?Veneer (0) for RP_Vector_Init+0x8>
  4034d0:	e12fff1c 	bx	ip
  4034d4:	00403f3d 	.word	0x00403f3d

004034d8 <?Veneer (0) for Main>:
  4034d8:	e59fc000 	ldr	ip, [pc, #0]	; 4034e0 <?Veneer (0) for Main+0x8>
  4034dc:	e12fff1c 	bx	ip
  4034e0:	00400a29 	.word	0x00400a29

004034e4 <__start_>:
  4034e4:	e59f1100 	ldr	r1, [pc, #256]	; 4035ec <_?0>
  4034e8:	e3a000d3 	mov	r0, #211	; 0xd3
  4034ec:	e121f000 	msr	CPSR_c, r0
  4034f0:	e2811f40 	add	r1, r1, #256	; 0x100
  4034f4:	e1a0d001 	mov	sp, r1
  4034f8:	e3a000d2 	mov	r0, #210	; 0xd2
  4034fc:	e121f000 	msr	CPSR_c, r0
  403500:	e2811e40 	add	r1, r1, #1024	; 0x400
  403504:	e1a0d001 	mov	sp, r1
  403508:	e3a000d1 	mov	r0, #209	; 0xd1
  40350c:	e121f000 	msr	CPSR_c, r0
  403510:	e2811e40 	add	r1, r1, #1024	; 0x400
  403514:	e1a0d001 	mov	sp, r1
  403518:	e3a000db 	mov	r0, #219	; 0xdb
  40351c:	e121f000 	msr	CPSR_c, r0
  403520:	e2811f40 	add	r1, r1, #256	; 0x100
  403524:	e1a0d001 	mov	sp, r1
  403528:	e3a000d7 	mov	r0, #215	; 0xd7
  40352c:	e121f000 	msr	CPSR_c, r0
  403530:	e2811f40 	add	r1, r1, #256	; 0x100
  403534:	e1a0d001 	mov	sp, r1
  403538:	e3a000df 	mov	r0, #223	; 0xdf
  40353c:	e121f000 	msr	CPSR_c, r0
  403540:	e2811e80 	add	r1, r1, #2048	; 0x800
  403544:	e1a0d001 	mov	sp, r1
  403548:	eb00023b 	bl	403e3c <__iar_data_init2>
  40354c:	e59f009c 	ldr	r0, [pc, #156]	; 4035f0 <_?1>
  403550:	e59f309c 	ldr	r3, [pc, #156]	; 4035f4 <_?2>
  403554:	e1500003 	cmp	r0, r3
  403558:	0a000000 	beq	403560 <__call_main>
  40355c:	ebf034db 	bl	108d0 <__rom_data_init>

00403560 <__call_main>:
  403560:	ebffffd9 	bl	4034cc <?Veneer (0) for RP_Vector_Init>
  403564:	eaffffdb 	b	4034d8 <?Veneer (0) for Main>

00403568 <__reserved_>:
  403568:	e1b0f00e 	movs	pc, lr

0040356c <__UndefInstructionHndlr_>:
  40356c:	e92d5fff 	push	{r0, r1, r2, r3, r4, r5, r6, r7, r8, r9, sl, fp, ip, lr}
  403570:	e59f0080 	ldr	r0, [pc, #128]	; 4035f8 <_?3>
  403574:	e5900000 	ldr	r0, [r0]
  403578:	e3500000 	cmp	r0, #0	; 0x0
  40357c:	11a0e00f 	movne	lr, pc
  403580:	112fff10 	bxne	r0
  403584:	e8bd5fff 	pop	{r0, r1, r2, r3, r4, r5, r6, r7, r8, r9, sl, fp, ip, lr}
  403588:	e1b0f00e 	movs	pc, lr

0040358c <__SupervisorHndlr_>:
  40358c:	e92d5fff 	push	{r0, r1, r2, r3, r4, r5, r6, r7, r8, r9, sl, fp, ip, lr}
  403590:	e59f0064 	ldr	r0, [pc, #100]	; 4035fc <_?4>
  403594:	e5900000 	ldr	r0, [r0]
  403598:	e3500000 	cmp	r0, #0	; 0x0
  40359c:	11a0e00f 	movne	lr, pc
  4035a0:	112fff10 	bxne	r0
  4035a4:	e8bd5fff 	pop	{r0, r1, r2, r3, r4, r5, r6, r7, r8, r9, sl, fp, ip, lr}
  4035a8:	e1b0f00e 	movs	pc, lr

004035ac <__PrefetchAbtHndlr_>:
  4035ac:	e92d5fff 	push	{r0, r1, r2, r3, r4, r5, r6, r7, r8, r9, sl, fp, ip, lr}
  4035b0:	e59f0048 	ldr	r0, [pc, #72]	; 403600 <_?5>
  4035b4:	e5900000 	ldr	r0, [r0]
  4035b8:	e3500000 	cmp	r0, #0	; 0x0
  4035bc:	11a0e00f 	movne	lr, pc
  4035c0:	112fff10 	bxne	r0
  4035c4:	e8bd5fff 	pop	{r0, r1, r2, r3, r4, r5, r6, r7, r8, r9, sl, fp, ip, lr}
  4035c8:	e25ef004 	subs	pc, lr, #4	; 0x4

004035cc <__DataAbtHndlr_>:
  4035cc:	e92d5fff 	push	{r0, r1, r2, r3, r4, r5, r6, r7, r8, r9, sl, fp, ip, lr}
  4035d0:	e59f002c 	ldr	r0, [pc, #44]	; 403604 <_?6>
  4035d4:	e5900000 	ldr	r0, [r0]
  4035d8:	e3500000 	cmp	r0, #0	; 0x0
  4035dc:	11a0e00f 	movne	lr, pc
  4035e0:	112fff10 	bxne	r0
  4035e4:	e8bd5fff 	pop	{r0, r1, r2, r3, r4, r5, r6, r7, r8, r9, sl, fp, ip, lr}
  4035e8:	e25ef004 	subs	pc, lr, #4	; 0x4

004035ec <_?0>:
  4035ec:	00403f44 	.word	0x00403f44

004035f0 <_?1>:
  4035f0:	00011788 	.word	0x00011788

004035f4 <_?2>:
  4035f4:	000117a8 	.word	0x000117a8

004035f8 <_?3>:
  4035f8:	0040014c 	.word	0x0040014c

004035fc <_?4>:
  4035fc:	00400150 	.word	0x00400150

00403600 <_?5>:
  403600:	00400154 	.word	0x00400154

00403604 <_?6>:
  403604:	00400158 	.word	0x00400158

00403608 <LED_Init>:
  403608:	b580      	push	{r7, lr}
  40360a:	200f      	movs	r0, #15
  40360c:	f000 f80a 	bl	403624 <Set_Pins>
  403610:	200f      	movs	r0, #15
  403612:	f000 f855 	bl	4036c0 <LED_TurnOffLed>
  403616:	2100      	movs	r1, #0
  403618:	2019      	movs	r0, #25
  40361a:	f404 ff31 	bl	8480 <Gpio_SetPinData>
  40361e:	9801      	ldr	r0, [sp, #4]
  403620:	b002      	add	sp, #8
  403622:	4700      	bx	r0

00403624 <Set_Pins>:
  403624:	b510      	push	{r4, lr}
  403626:	0004      	lsls	r4, r0, #0
  403628:	07e0      	lsls	r0, r4, #31
  40362a:	d50f      	bpl.n	40364c <??Set_Pins_0>
  40362c:	2100      	movs	r1, #0
  40362e:	2017      	movs	r0, #23
  403630:	f405 f89c 	bl	876c <Gpio_SetPinFunction>
  403634:	2101      	movs	r1, #1
  403636:	2017      	movs	r0, #23
  403638:	f404 ff9c 	bl	8574 <Gpio_SetPinReadSource>
  40363c:	2101      	movs	r1, #1
  40363e:	2017      	movs	r0, #23
  403640:	f404 feb2 	bl	83a8 <Gpio_SetPinDir>
  403644:	2101      	movs	r1, #1
  403646:	2017      	movs	r0, #23
  403648:	f404 ff1a 	bl	8480 <Gpio_SetPinData>

0040364c <??Set_Pins_0>:
  40364c:	07a0      	lsls	r0, r4, #30
  40364e:	d50f      	bpl.n	403670 <??Set_Pins_1>
  403650:	2100      	movs	r1, #0
  403652:	2018      	movs	r0, #24
  403654:	f405 f88a 	bl	876c <Gpio_SetPinFunction>
  403658:	2101      	movs	r1, #1
  40365a:	2018      	movs	r0, #24
  40365c:	f404 ff8a 	bl	8574 <Gpio_SetPinReadSource>
  403660:	2101      	movs	r1, #1
  403662:	2018      	movs	r0, #24
  403664:	f404 fea0 	bl	83a8 <Gpio_SetPinDir>
  403668:	2101      	movs	r1, #1
  40366a:	2018      	movs	r0, #24
  40366c:	f404 ff08 	bl	8480 <Gpio_SetPinData>

00403670 <??Set_Pins_1>:
  403670:	0760      	lsls	r0, r4, #29
  403672:	d50f      	bpl.n	403694 <??Set_Pins_2>
  403674:	2100      	movs	r1, #0
  403676:	2019      	movs	r0, #25
  403678:	f405 f878 	bl	876c <Gpio_SetPinFunction>
  40367c:	2101      	movs	r1, #1
  40367e:	2019      	movs	r0, #25
  403680:	f404 ff78 	bl	8574 <Gpio_SetPinReadSource>
  403684:	2101      	movs	r1, #1
  403686:	2019      	movs	r0, #25
  403688:	f404 fe8e 	bl	83a8 <Gpio_SetPinDir>
  40368c:	2101      	movs	r1, #1
  40368e:	2019      	movs	r0, #25
  403690:	f404 fef6 	bl	8480 <Gpio_SetPinData>

00403694 <??Set_Pins_2>:
  403694:	0720      	lsls	r0, r4, #28
  403696:	d50f      	bpl.n	4036b8 <??Set_Pins_3>
  403698:	2100      	movs	r1, #0
  40369a:	202c      	movs	r0, #44
  40369c:	f405 f866 	bl	876c <Gpio_SetPinFunction>
  4036a0:	2101      	movs	r1, #1
  4036a2:	202c      	movs	r0, #44
  4036a4:	f404 ff66 	bl	8574 <Gpio_SetPinReadSource>
  4036a8:	2101      	movs	r1, #1
  4036aa:	202c      	movs	r0, #44
  4036ac:	f404 fe7c 	bl	83a8 <Gpio_SetPinDir>
  4036b0:	2101      	movs	r1, #1
  4036b2:	202c      	movs	r0, #44
  4036b4:	f404 fee4 	bl	8480 <Gpio_SetPinData>

004036b8 <??Set_Pins_3>:
  4036b8:	9801      	ldr	r0, [sp, #4]
  4036ba:	bc10      	pop	{r4}
  4036bc:	b001      	add	sp, #4
  4036be:	4700      	bx	r0

004036c0 <LED_TurnOffLed>:
  4036c0:	b510      	push	{r4, lr}
  4036c2:	0004      	lsls	r4, r0, #0
  4036c4:	07e0      	lsls	r0, r4, #31
  4036c6:	d503      	bpl.n	4036d0 <??LED_TurnOffLed_0>
  4036c8:	2100      	movs	r1, #0
  4036ca:	2017      	movs	r0, #23
  4036cc:	f404 fed8 	bl	8480 <Gpio_SetPinData>

004036d0 <??LED_TurnOffLed_0>:
  4036d0:	07a0      	lsls	r0, r4, #30
  4036d2:	d503      	bpl.n	4036dc <??LED_TurnOffLed_1>
  4036d4:	2100      	movs	r1, #0
  4036d6:	2018      	movs	r0, #24
  4036d8:	f404 fed2 	bl	8480 <Gpio_SetPinData>

004036dc <??LED_TurnOffLed_1>:
  4036dc:	0760      	lsls	r0, r4, #29
  4036de:	d503      	bpl.n	4036e8 <??LED_TurnOffLed_2>
  4036e0:	2100      	movs	r1, #0
  4036e2:	2019      	movs	r0, #25
  4036e4:	f404 fecc 	bl	8480 <Gpio_SetPinData>

004036e8 <??LED_TurnOffLed_2>:
  4036e8:	0720      	lsls	r0, r4, #28
  4036ea:	d503      	bpl.n	4036f4 <??LED_TurnOffLed_3>
  4036ec:	2100      	movs	r1, #0
  4036ee:	202c      	movs	r0, #44
  4036f0:	f404 fec6 	bl	8480 <Gpio_SetPinData>

004036f4 <??LED_TurnOffLed_3>:
  4036f4:	9801      	ldr	r0, [sp, #4]
  4036f6:	bc10      	pop	{r4}
  4036f8:	b001      	add	sp, #4
  4036fa:	4700      	bx	r0

004036fc <__iar_packbits_init2>:
  4036fc:	e92d43f8 	push	{r3, r4, r5, r6, r7, r8, r9, lr}
  403700:	e5902000 	ldr	r2, [r0]
  403704:	e2801008 	add	r1, r0, #8	; 0x8
  403708:	e5900004 	ldr	r0, [r0, #4]
  40370c:	e0812182 	add	r2, r1, r2, lsl #3
  403710:	e0820180 	add	r0, r2, r0, lsl #3
  403714:	e3a06000 	mov	r6, #0	; 0x0
  403718:	e3a07000 	mov	r7, #0	; 0x0
  40371c:	e3a04000 	mov	r4, #0	; 0x0
  403720:	e3a05001 	mov	r5, #1	; 0x1
  403724:	ea00000a 	b	403754 <__iar_packbits_init2+0x58>
  403728:	e4d68001 	ldrb	r8, [r6], #1
  40372c:	e15e0009 	cmp	lr, r9
  403730:	0a000005 	beq	40374c <__iar_packbits_init2+0x50>
  403734:	e2844001 	add	r4, r4, #1	; 0x1
  403738:	e1a04804 	lsl	r4, r4, #16
  40373c:	e4ce8001 	strb	r8, [lr], #1
  403740:	e1b04844 	asrs	r4, r4, #16
  403744:	4afffff8 	bmi	40372c <__iar_packbits_init2+0x30>
  403748:	e3a05001 	mov	r5, #1	; 0x1
  40374c:	e15e0009 	cmp	lr, r9
  403750:	1a00000a 	bne	403780 <__iar_packbits_init2+0x84>
  403754:	e1520000 	cmp	r2, r0
  403758:	1a000001 	bne	403764 <__iar_packbits_init2+0x68>
  40375c:	e8bd43f2 	pop	{r1, r4, r5, r6, r7, r8, r9, lr}
  403760:	e12fff1e 	bx	lr
  403764:	e492e004 	ldr	lr, [r2], #4
  403768:	e4928004 	ldr	r8, [r2], #4
  40376c:	e088900e 	add	r9, r8, lr
  403770:	eafffff5 	b	40374c <__iar_packbits_init2+0x50>
  403774:	e4916004 	ldr	r6, [r1], #4
  403778:	e4917004 	ldr	r7, [r1], #4
  40377c:	e0877006 	add	r7, r7, r6
  403780:	e1560007 	cmp	r6, r7
  403784:	0afffffa 	beq	403774 <__iar_packbits_init2+0x78>
  403788:	e3550000 	cmp	r5, #0	; 0x0
  40378c:	0a000007 	beq	4037b0 <__iar_packbits_init2+0xb4>
  403790:	e0d640d1 	ldrsb	r4, [r6], #1
  403794:	e3a05000 	mov	r5, #0	; 0x0
  403798:	ea000002 	b	4037a8 <__iar_packbits_init2+0xac>
  40379c:	e4916004 	ldr	r6, [r1], #4
  4037a0:	e4917004 	ldr	r7, [r1], #4
  4037a4:	e0877006 	add	r7, r7, r6
  4037a8:	e1560007 	cmp	r6, r7
  4037ac:	0afffffa 	beq	40379c <__iar_packbits_init2+0xa0>
  4037b0:	e3540000 	cmp	r4, #0	; 0x0
  4037b4:	4affffdb 	bmi	403728 <__iar_packbits_init2+0x2c>
  4037b8:	e3540000 	cmp	r4, #0	; 0x0
  4037bc:	4affffe1 	bmi	403748 <__iar_packbits_init2+0x4c>
  4037c0:	e15e0009 	cmp	lr, r9
  4037c4:	11560007 	cmpne	r6, r7
  4037c8:	0affffdf 	beq	40374c <__iar_packbits_init2+0x50>
  4037cc:	e4d68001 	ldrb	r8, [r6], #1
  4037d0:	e2444001 	sub	r4, r4, #1	; 0x1
  4037d4:	e1a04804 	lsl	r4, r4, #16
  4037d8:	e4ce8001 	strb	r8, [lr], #1
  4037dc:	e1a04844 	asr	r4, r4, #16
  4037e0:	eafffff4 	b	4037b8 <__iar_packbits_init2+0xbc>

004037e4 <gPSMVAL_c>:
  4037e4:	0000080f 	.word	0x0000080f
  4037e8:	0000080f 	.word	0x0000080f
  4037ec:	0000080f 	.word	0x0000080f
  4037f0:	0000080f 	.word	0x0000080f
  4037f4:	0000081f 	.word	0x0000081f
  4037f8:	0000081f 	.word	0x0000081f
  4037fc:	0000081f 	.word	0x0000081f
  403800:	0000080f 	.word	0x0000080f
  403804:	0000080f 	.word	0x0000080f
  403808:	0000080f 	.word	0x0000080f
  40380c:	0000001f 	.word	0x0000001f
  403810:	0000000f 	.word	0x0000000f
  403814:	0000000f 	.word	0x0000000f
  403818:	00000816 	.word	0x00000816
  40381c:	0000001b 	.word	0x0000001b
  403820:	0000000b 	.word	0x0000000b
  403824:	00000802 	.word	0x00000802
  403828:	00000817 	.word	0x00000817
  40382c:	00000003 	.word	0x00000003

00403830 <gPAVAL_c>:
  403830:	000022c0 	.word	0x000022c0
  403834:	000022c0 	.word	0x000022c0
  403838:	000022c0 	.word	0x000022c0
  40383c:	00002280 	.word	0x00002280
  403840:	00002303 	.word	0x00002303
  403844:	000023c0 	.word	0x000023c0
  403848:	00002880 	.word	0x00002880
  40384c:	000029f0 	.word	0x000029f0
  403850:	000029f0 	.word	0x000029f0
  403854:	000029f0 	.word	0x000029f0
  403858:	000029c0 	.word	0x000029c0
  40385c:	00002bf0 	.word	0x00002bf0
  403860:	000029f0 	.word	0x000029f0
  403864:	000028a0 	.word	0x000028a0
  403868:	00002800 	.word	0x00002800
  40386c:	00002ac0 	.word	0x00002ac0
  403870:	00002880 	.word	0x00002880
  403874:	00002a00 	.word	0x00002a00
  403878:	00002b00 	.word	0x00002b00

0040387c <gAIMVAL_c>:
  40387c:	000123a0 	.word	0x000123a0
  403880:	000163a0 	.word	0x000163a0
  403884:	0001a3a0 	.word	0x0001a3a0
  403888:	0001e3a0 	.word	0x0001e3a0
  40388c:	000223a0 	.word	0x000223a0
  403890:	000263a0 	.word	0x000263a0
  403894:	0002a3a0 	.word	0x0002a3a0
  403898:	0002e3a0 	.word	0x0002e3a0
  40389c:	000323a0 	.word	0x000323a0
  4038a0:	000363a0 	.word	0x000363a0
  4038a4:	0003a3a0 	.word	0x0003a3a0
  4038a8:	0003a3a0 	.word	0x0003a3a0
  4038ac:	0003e3a0 	.word	0x0003e3a0
  4038b0:	000423a0 	.word	0x000423a0
  4038b4:	000523a0 	.word	0x000523a0
  4038b8:	000423a0 	.word	0x000423a0
  4038bc:	0004e3a0 	.word	0x0004e3a0
  4038c0:	0004e3a0 	.word	0x0004e3a0
  4038c4:	0004e3a0 	.word	0x0004e3a0

004038c8 <MLMEGetPromiscuousMode>:
  4038c8:	482a      	ldr	r0, [pc, #168]	(403974 <??DataTable2>)
  4038ca:	7800      	ldrb	r0, [r0, #0]
  4038cc:	4770      	bx	lr
	...

004038d0 <MLMERadioInit>:
  4038d0:	b570      	push	{r4, r5, r6, lr}
  4038d2:	b082      	sub	sp, #8
  4038d4:	2500      	movs	r5, #0
  4038d6:	2601      	movs	r6, #1
  4038d8:	4c26      	ldr	r4, [pc, #152]	(403974 <??DataTable2>)
  4038da:	7860      	ldrb	r0, [r4, #1]
  4038dc:	2800      	cmp	r0, #0
  4038de:	d109      	bne.n	4038f4 <??MLMERadioInit_0>
  4038e0:	7066      	strb	r6, [r4, #1]
  4038e2:	22a8      	movs	r2, #168
  4038e4:	0592      	lsls	r2, r2, #22
  4038e6:	2118      	movs	r1, #24
  4038e8:	481b      	ldr	r0, [pc, #108]	(403958 <??MLMERadioInit_1>)
  4038ea:	f7ff fb67 	bl	402fbc <RadioInit>
  4038ee:	7025      	strb	r5, [r4, #0]
  4038f0:	f7fe fd80 	bl	4023f4 <radio_manager_init>

004038f4 <??MLMERadioInit_0>:
  4038f4:	4819      	ldr	r0, [pc, #100]	(40395c <??MLMERadioInit_1+0x4>)
  4038f6:	6006      	str	r6, [r0, #0]
  4038f8:	4669      	mov	r1, sp
  4038fa:	700d      	strb	r5, [r1, #0]
  4038fc:	466a      	mov	r2, sp
  4038fe:	e003      	b.n	403908 <??MLMERadioInit_2>

00403900 <??MLMERadioInit_3>:
  403900:	4669      	mov	r1, sp
  403902:	7809      	ldrb	r1, [r1, #0]
  403904:	1c49      	adds	r1, r1, #1
  403906:	7011      	strb	r1, [r2, #0]

00403908 <??MLMERadioInit_2>:
  403908:	4669      	mov	r1, sp
  40390a:	7809      	ldrb	r1, [r1, #0]
  40390c:	2964      	cmp	r1, #100
  40390e:	d3f7      	bcc.n	403900 <??MLMERadioInit_3>
  403910:	2102      	movs	r1, #2
  403912:	6001      	str	r1, [r0, #0]
  403914:	6085      	str	r5, [r0, #8]
  403916:	2103      	movs	r1, #3
  403918:	63c1      	str	r1, [r0, #60]
  40391a:	4811      	ldr	r0, [pc, #68]	(403960 <??MLMERadioInit_1+0x8>)
  40391c:	215f      	movs	r1, #95
  40391e:	6481      	str	r1, [r0, #72]
  403920:	4910      	ldr	r1, [pc, #64]	(403964 <??MLMERadioInit_1+0xc>)
  403922:	64c1      	str	r1, [r0, #76]
  403924:	2104      	movs	r1, #4
  403926:	67c1      	str	r1, [r0, #124]
  403928:	480f      	ldr	r0, [pc, #60]	(403968 <??MLMERadioInit_1+0x10>)
  40392a:	4910      	ldr	r1, [pc, #64]	(40396c <??MLMERadioInit_1+0x14>)
  40392c:	6001      	str	r1, [r0, #0]
  40392e:	2125      	movs	r1, #37
  403930:	6081      	str	r1, [r0, #8]
  403932:	480b      	ldr	r0, [pc, #44]	(403960 <??MLMERadioInit_1+0x8>)
  403934:	21a7      	movs	r1, #167
  403936:	6581      	str	r1, [r0, #88]
  403938:	4808      	ldr	r0, [pc, #32]	(40395c <??MLMERadioInit_1+0x4>)
  40393a:	2108      	movs	r1, #8
  40393c:	6441      	str	r1, [r0, #68]
  40393e:	4808      	ldr	r0, [pc, #32]	(403960 <??MLMERadioInit_1+0x8>)
  403940:	490b      	ldr	r1, [pc, #44]	(403970 <??MLMERadioInit_1+0x18>)
  403942:	6001      	str	r1, [r0, #0]
  403944:	4805      	ldr	r0, [pc, #20]	(40395c <??MLMERadioInit_1+0x4>)
  403946:	21d4      	movs	r1, #212
  403948:	0389      	lsls	r1, r1, #14
  40394a:	6601      	str	r1, [r0, #96]
  40394c:	2000      	movs	r0, #0
  40394e:	b002      	add	sp, #8
  403950:	9903      	ldr	r1, [sp, #12]
  403952:	bc70      	pop	{r4, r5, r6}
  403954:	b001      	add	sp, #4
  403956:	4708      	bx	r1

00403958 <??MLMERadioInit_1>:
  403958:	016e3600 	.word	0x016e3600
  40395c:	80004004 	.word	0x80004004
  403960:	800040cc 	.word	0x800040cc
  403964:	00180012 	.word	0x00180012
  403968:	8000414c 	.word	0x8000414c
  40396c:	001a0022 	.word	0x001a0022
  403970:	00003815 	.word	0x00003815

00403974 <??DataTable2>:
  403974:	004052ad 	.word	0x004052ad

00403978 <?Veneer (3) for CRM_WuCntl>:
  403978:	b408      	push	{r3}
  40397a:	4b02      	ldr	r3, [pc, #8]	(403984 <?Veneer (3) for CRM_WuCntl+0xc>)
  40397c:	469c      	mov	ip, r3
  40397e:	bc08      	pop	{r3}
  403980:	4760      	bx	ip
  403982:	46c0      	nop			(mov r8, r8)
  403984:	000036d9 	.word	0x000036d9

00403988 <MLMESetWakeupSource>:
  403988:	b5f0      	push	{r4, r5, r6, r7, lr}
  40398a:	b083      	sub	sp, #12
  40398c:	000f      	lsls	r7, r1, #0
  40398e:	0014      	lsls	r4, r2, #0
  403990:	25f3      	movs	r5, #243
  403992:	4005      	ands	r5, r0
  403994:	2603      	movs	r6, #3
  403996:	2003      	movs	r0, #3
  403998:	07e9      	lsls	r1, r5, #31
  40399a:	d509      	bpl.n	4039b0 <??MLMESetWakeupSource_0>
  40399c:	4668      	mov	r0, sp
  40399e:	2101      	movs	r1, #1
  4039a0:	7001      	strb	r1, [r0, #0]
  4039a2:	9801      	ldr	r0, [sp, #4]
  4039a4:	4330      	orrs	r0, r6
  4039a6:	9001      	str	r0, [sp, #4]
  4039a8:	4668      	mov	r0, sp
  4039aa:	f7ff ffe5 	bl	403978 <?Veneer (3) for CRM_WuCntl>
  4039ae:	2000      	movs	r0, #0

004039b0 <??MLMESetWakeupSource_0>:
  4039b0:	2102      	movs	r1, #2
  4039b2:	420d      	tst	r5, r1
  4039b4:	d008      	beq.n	4039c8 <??MLMESetWakeupSource_1>
  4039b6:	4668      	mov	r0, sp
  4039b8:	7001      	strb	r1, [r0, #0]
  4039ba:	9801      	ldr	r0, [sp, #4]
  4039bc:	4306      	orrs	r6, r0
  4039be:	9601      	str	r6, [sp, #4]
  4039c0:	4668      	mov	r0, sp
  4039c2:	f7ff ffd9 	bl	403978 <?Veneer (3) for CRM_WuCntl>
  4039c6:	2000      	movs	r0, #0

004039c8 <??MLMESetWakeupSource_1>:
  4039c8:	21f0      	movs	r1, #240
  4039ca:	420d      	tst	r5, r1
  4039cc:	d01c      	beq.n	403a08 <??MLMESetWakeupSource_2>
  4039ce:	0028      	lsls	r0, r5, #0
  4039d0:	25f0      	movs	r5, #240
  4039d2:	4005      	ands	r5, r0
  4039d4:	2600      	movs	r6, #0
  4039d6:	4668      	mov	r0, sp
  4039d8:	7006      	strb	r6, [r0, #0]
  4039da:	0928      	lsrs	r0, r5, #4
  4039dc:	9a01      	ldr	r2, [sp, #4]
  4039de:	230f      	movs	r3, #15
  4039e0:	439a      	bics	r2, r3
  4039e2:	4302      	orrs	r2, r0
  4039e4:	4b0b      	ldr	r3, [pc, #44]	(403a14 <??MLMESetWakeupSource_3>)
  4039e6:	4013      	ands	r3, r2
  4039e8:	0300      	lsls	r0, r0, #12
  4039ea:	4318      	orrs	r0, r3
  4039ec:	4a0a      	ldr	r2, [pc, #40]	(403a18 <??MLMESetWakeupSource_3+0x4>)
  4039ee:	4002      	ands	r2, r0
  4039f0:	0238      	lsls	r0, r7, #8
  4039f2:	010b      	lsls	r3, r1, #4
  4039f4:	4003      	ands	r3, r0
  4039f6:	4313      	orrs	r3, r2
  4039f8:	0120      	lsls	r0, r4, #4
  4039fa:	4001      	ands	r1, r0
  4039fc:	4319      	orrs	r1, r3
  4039fe:	9101      	str	r1, [sp, #4]
  403a00:	4668      	mov	r0, sp
  403a02:	f7ff ffb9 	bl	403978 <?Veneer (3) for CRM_WuCntl>
  403a06:	2000      	movs	r0, #0

00403a08 <??MLMESetWakeupSource_2>:
  403a08:	b003      	add	sp, #12
  403a0a:	9904      	ldr	r1, [sp, #16]
  403a0c:	bcf0      	pop	{r4, r5, r6, r7}
  403a0e:	b001      	add	sp, #4
  403a10:	4708      	bx	r1
  403a12:	46c0      	nop			(mov r8, r8)

00403a14 <??MLMESetWakeupSource_3>:
  403a14:	ffff0fff 	.word	0xffff0fff
  403a18:	fffff00f 	.word	0xfffff00f

00403a1c <MCPSDataRequest>:
  403a1c:	b580      	push	{r7, lr}
  403a1e:	2100      	movs	r1, #0
  403a20:	7001      	strb	r1, [r0, #0]
  403a22:	6841      	ldr	r1, [r0, #4]
  403a24:	227e      	movs	r2, #126
  403a26:	700a      	strb	r2, [r1, #0]
  403a28:	6841      	ldr	r1, [r0, #4]
  403a2a:	22ff      	movs	r2, #255
  403a2c:	704a      	strb	r2, [r1, #1]
  403a2e:	e027      	b.n	403a80 <?Subroutine0>

00403a30 <MLMESetChannelRequest>:
  403a30:	b580      	push	{r7, lr}
  403a32:	2810      	cmp	r0, #16
  403a34:	d301      	bcc.n	403a3a <??MLMESetChannelRequest_0>
  403a36:	2001      	movs	r0, #1
  403a38:	e026      	b.n	403a88 <??Subroutine2_0>

00403a3a <??MLMESetChannelRequest_0>:
  403a3a:	0081      	lsls	r1, r0, #2      r0 is channel number, r1 is offset in words
  403a3c:	4a03      	ldr	r2, [pc, #12]	(403a4c <??DataTable2>) r2=0x00403c14 (gaRFSynVCODivF_c)
  403a3e:	5852      	ldr	r2, [r2, r1]    r2 gets gaRFSynVCODivF_c[r1]
  403a40:	4903      	ldr	r1, [pc, #12]	(403a50 <??DataTable3>) r1=0x00403c04 (gaRFSynVCODivI_c)
  403a42:	5c09      	ldrb	r1, [r1, r0]    r1 gets gaRFSynVCODivI_c[r0]
  403a44:	f7ff fb52 	bl	4030ec <SetChannel> // SetChannel(chan,gaRFSynVCODivI_c[chan],gaRFSynVCODivF_c[chan])
  403a48:	2000      	movs	r0, #0
  403a4a:	e01d      	b.n	403a88 <??Subroutine2_0>

00403a4c <??DataTable2>:
  403a4c:	00403c14 	.word	0x00403c14

00403a50 <??DataTable3>:
  403a50:	00403c04 	.word	0x00403c04

00403a54 <MLMERXEnableRequest>:
  403a54:	b580      	push	{r7, lr}
  403a56:	7802      	ldrb	r2, [r0, #0]
  403a58:	23f8      	movs	r3, #248
  403a5a:	4013      	ands	r3, r2
  403a5c:	2201      	movs	r2, #1
  403a5e:	431a      	orrs	r2, r3
  403a60:	7002      	strb	r2, [r0, #0]
  403a62:	e00f      	b.n	403a84 <??Subroutine1_0>

00403a64 <MLMEEnergyDetect>:
  403a64:	b580      	push	{r7, lr}
  403a66:	6842      	ldr	r2, [r0, #4]
  403a68:	2a00      	cmp	r2, #0
  403a6a:	d101      	bne.n	403a70 <??MLMEEnergyDetect_0>
  403a6c:	2001      	movs	r0, #1
  403a6e:	e00b      	b.n	403a88 <??Subroutine2_0>

